ccopy_reg
_reconstructor
p1
(cicarus.results.readwrite
ResultSet
p2
c__builtin__
object
p3
NtRp4
(dp5
S'attr'
p6
(dp7
sS'_results'
p8
ccollections
deque
p9
((lp10
(cicarus.util
Tree
p11
(tRp12
S'workload'
p13
g11
(tRp14
S'n_contents'
p15
I30000
sS'rank_per_group'
p16
F0.5
sS'name'
p17
S'DIFFRANK'
p18
sS'n_warmup'
p19
I60000
sS'rate'
p20
F300
sS'n_measured'
p21
I600000
sS'alpha'
p22
F1
sS'n_rank'
p23
I32
ssS'cache_policy'
p24
g11
(tRp25
g17
S'LRU'
p26
ssS'strategy'
p27
g11
(tRp28
g17
S'NRR'
p29
ssS'content_placement'
p30
g11
(tRp31
g17
S'UNIFORM'
p32
ssS'cache_placement'
p33
g11
(tRp34
S'network_cache'
p35
F0.10000000000000001
sg17
g32
ssS'desc'
p36
S'Alpha: 1.0, strategy: NRR,  network cache: 0.1, topology: Datacenter,  num of datastore: 1, group size: 5. '
p37
sS'topology'
p38
g11
(tRp39
S'n_node'
p40
I320
sS'n_datastore'
p41
I1
sg17
S'DATACENTER'
p42
sS'n_member'
p43
I5
ssg11
(tRp44
S'LATENCY'
p45
g11
(tRp46
S'MEAN'
p47
F32.674153333333336
ssS'CACHE_HIT_RATIO'
p48
g11
(tRp49
S'PER_NODE_SERVER_HIT_RATIO'
p50
g11
(tRp51
I0
F0.41428833333333331
ssS'PER_NODE_CACHE_HIT_RATIO'
p52
g11
(tRp53
I65
F0.0024083333333333335
sI66
F0.0018233333333333333
sI67
F0.0016383333333333334
sI68
F0.0016166666666666666
sI69
F0.0016566666666666667
sI70
F0.0022133333333333332
sI71
F0.0017783333333333334
sI72
F0.0020266666666666666
sI73
F0.0016733333333333333
sI74
F0.0016966666666666666
sI75
F0.0022633333333333333
sI76
F0.0019
sI77
F0.0013916666666666667
sI78
F0.0017316666666666667
sI79
F0.0015633333333333332
sI80
F0.0023033333333333334
sI81
F0.0019016666666666667
sI82
F0.0017283333333333332
sI83
F0.0015216666666666666
sI84
F0.0015816666666666668
sI85
F0.0021749999999999999
sI86
F0.0018749999999999999
sI87
F0.0017616666666666666
sI88
F0.0014133333333333333
sI89
F0.0018483333333333333
sI90
F0.00215
sI91
F0.0018366666666666666
sI92
F0.0017466666666666668
sI93
F0.0013799999999999999
sI94
F0.0017016666666666666
sI95
F0.00166
sI96
F0.002405
sI97
F0.0018716666666666667
sI98
F0.0016966666666666666
sI99
F0.0016183333333333334
sI100
F0.0022966666666666665
sI101
F0.0019250000000000001
sI102
F0.0015783333333333333
sI103
F0.0015416666666666667
sI104
F0.0017816666666666666
sI105
F0.0023933333333333333
sI106
F0.0018933333333333332
sI107
F0.0017099999999999999
sI108
F0.0015499999999999999
sI109
F0.0016033333333333333
sI110
F0.0021549999999999998
sI111
F0.0017116666666666667
sI112
F0.0019683333333333332
sI113
F0.00182
sI114
F0.00181
sI115
F0.0022866666666666669
sI116
F0.0018666666666666666
sI117
F0.0017650000000000001
sI118
F0.0016616666666666668
sI119
F0.0015866666666666666
sI120
F0.0022966666666666665
sI121
F0.00191
sI122
F0.00174
sI123
F0.0016866666666666666
sI124
F0.0016633333333333333
sI125
F0.0016966666666666666
sI126
F0.0016066666666666666
sI127
F0.0016266666666666667
sI128
F0.0023166666666666665
sI129
F0.00198
sI130
F0.0023333333333333335
sI131
F0.0018183333333333333
sI132
F0.0017766666666666666
sI133
F0.0015200000000000001
sI134
F0.0016983333333333334
sI135
F0.0021199999999999999
sI136
F0.0019300000000000001
sI137
F0.0018116666666666667
sI138
F0.0016933333333333334
sI139
F0.0016466666666666667
sI140
F0.00216
sI141
F0.0018216666666666667
sI142
F0.0017183333333333334
sI143
F0.0017066666666666667
sI144
F0.0018666666666666666
sI145
F0.0023083333333333332
sI146
F0.0018233333333333333
sI147
F0.001735
sI148
F0.001645
sI149
F0.00165
sI150
F0.0021133333333333334
sI151
F0.0018516666666666666
sI152
F0.00183
sI153
F0.0016999999999999999
sI154
F0.0016466666666666667
sI155
F0.0023400000000000001
sI156
F0.0020083333333333333
sI157
F0.0017916666666666667
sI158
F0.0016083333333333334
sI159
F0.00181
sI160
F0.0021816666666666668
sI161
F0.0018816666666666667
sI162
F0.0018333333333333333
sI163
F0.0017066666666666667
sI164
F0.001635
sI165
F0.002055
sI166
F0.0018216666666666667
sI167
F0.0017650000000000001
sI168
F0.0018649999999999999
sI169
F0.0013483333333333333
sI170
F0.0022216666666666665
sI171
F0.0020083333333333333
sI172
F0.0017116666666666667
sI173
F0.0016383333333333334
sI174
F0.0016800000000000001
sI175
F0.0020166666666666666
sI176
F0.0019350000000000001
sI177
F0.0017433333333333333
sI178
F0.0017183333333333334
sI179
F0.0016850000000000001
sI180
F0.0023683333333333334
sI181
F0.0018266666666666668
sI182
F0.0017233333333333332
sI183
F0.0017166666666666667
sI184
F0.0016883333333333334
sI185
F0.0022666666666666668
sI186
F0.0019300000000000001
sI187
F0.0016766666666666666
sI188
F0.0016083333333333334
sI189
F0.0016166666666666666
sI190
F0.00165
sI191
F0.0017700000000000001
sI192
F0.0022566666666666668
sI193
F0.0018616666666666666
sI194
F0.001395
sI195
F0.0023683333333333334
sI196
F0.0019616666666666667
sI197
F0.0016983333333333334
sI198
F0.0016233333333333334
sI199
F0.0016116666666666666
sI200
F0.0022000000000000001
sI201
F0.0019233333333333333
sI202
F0.0017600000000000001
sI203
F0.0015633333333333332
sI204
F0.0015366666666666666
sI205
F0.0021616666666666668
sI206
F0.0017933333333333334
sI207
F0.0016833333333333333
sI208
F0.0018283333333333333
sI209
F0.001655
sI210
F0.002245
sI211
F0.0018816666666666667
sI212
F0.00167
sI213
F0.0017316666666666667
sI214
F0.0017066666666666667
sI215
F0.0021016666666666666
sI216
F0.0019683333333333332
sI217
F0.0017849999999999999
sI218
F0.0017766666666666666
sI219
F0.00164
sI220
F0.0018933333333333332
sI221
F0.0016683333333333333
sI222
F0.0017233333333333332
sI223
F0.0016066666666666666
sI224
F0.0023766666666666667
sI225
F0.0022899999999999999
sI226
F0.0018316666666666668
sI227
F0.001755
sI228
F0.0014016666666666667
sI229
F0.001645
sI230
F0.0021183333333333332
sI231
F0.0013883333333333334
sI232
F0.0019266666666666666
sI233
F0.0017616666666666666
sI234
F0.0016866666666666666
sI235
F0.00216
sI236
F0.0018816666666666667
sI237
F0.0017683333333333333
sI238
F0.0017133333333333334
sI239
F0.0016233333333333334
sI240
F0.0022833333333333334
sI241
F0.0019233333333333333
sI242
F0.0016816666666666666
sI243
F0.0016716666666666666
sI244
F0.0016466666666666667
sI245
F0.0021066666666666668
sI246
F0.0018566666666666666
sI247
F0.0016033333333333333
sI248
F0.0018916666666666667
sI249
F0.0018749999999999999
sI250
F0.0023466666666666666
sI251
F0.0019750000000000002
sI252
F0.001755
sI253
F0.0016916666666666666
sI254
F0.00165
sI255
F0.0016166666666666666
sI256
F0.00233
sI257
F0.0014566666666666667
sI258
F0.0019016666666666667
sI259
F0.00167
sI260
F0.002215
sI261
F0.0018649999999999999
sI262
F0.0016166666666666666
sI263
F0.0015966666666666666
sI264
F0.0018033333333333334
sI265
F0.0023383333333333333
sI266
F0.0019233333333333333
sI267
F0.0017266666666666667
sI268
F0.0014333333333333333
sI269
F0.0017533333333333333
sI270
F0.0019383333333333334
sI271
F0.001805
sI272
F0.002
sI273
F0.0017983333333333334
sI274
F0.0016850000000000001
sI275
F0.0014733333333333334
sI276
F0.002395
sI277
F0.0019483333333333334
sI278
F0.0017233333333333332
sI279
F0.00164
sI280
F0.00215
sI281
F0.0019300000000000001
sI282
F0.0017233333333333332
sI283
F0.0017233333333333332
sI284
F0.0016016666666666666
sI285
F0.0017583333333333333
sI286
F0.0017183333333333334
sI287
F0.00156
sI288
F0.0022816666666666667
sI289
F0.0018483333333333333
sI290
F0.0022366666666666668
sI291
F0.0018116666666666667
sI292
F0.0017883333333333334
sI293
F0.0016316666666666667
sI294
F0.0015583333333333332
sI295
F0.0020983333333333331
sI296
F0.0020166666666666666
sI297
F0.00175
sI298
F0.0016666666666666668
sI299
F0.00165
sI300
F0.0022750000000000001
sI301
F0.0019750000000000002
sI302
F0.0016216666666666667
sI303
F0.0013016666666666667
sI304
F0.0018033333333333334
sI305
F0.0023683333333333334
sI306
F0.0018966666666666667
sI307
F0.0017600000000000001
sI308
F0.0016883333333333334
sI309
F0.0016000000000000001
sI310
F0.0021783333333333333
sI311
F0.0016750000000000001
sI312
F0.00175
sI313
F0.0017816666666666666
sI314
F0.0017333333333333333
sI315
F0.0022316666666666665
sI316
F0.0019300000000000001
sI317
F0.0017483333333333333
sI318
F0.001655
sI319
F0.0013166666666666667
sI320
F0.0022666666666666668
sI321
F0.0019233333333333333
sI322
F0.0017366666666666667
sI323
F0.0017149999999999999
sI324
F0.0017233333333333332
sI325
F0.0020933333333333333
sI326
F0.0017700000000000001
sI327
F0.0014066666666666667
sI328
F0.0017983333333333334
sI329
F0.00172
sI330
F0.0022333333333333333
sI331
F0.0019133333333333333
sI332
F0.0016216666666666667
sI333
F0.0017516666666666666
sI334
F0.0016983333333333334
sI335
F0.0020300000000000001
sI336
F0.0019333333333333333
sI337
F0.0017983333333333334
sI338
F0.0016866666666666666
sI339
F0.0017033333333333334
sI340
F0.0021849999999999999
sI341
F0.0018466666666666666
sI342
F0.0017983333333333334
sI343
F0.00165
sI344
F0.0018766666666666667
sI345
F0.0021250000000000002
sI346
F0.0014499999999999999
sI347
F0.0018600000000000001
sI348
F0.0017283333333333332
sI349
F0.0016149999999999999
sI350
F0.001735
sI351
F0.0016149999999999999
sI352
F0.0022966666666666665
sI353
F0.0019266666666666666
sI354
F0.0016916666666666666
sI355
F0.0023016666666666667
sI356
F0.0017916666666666667
sI357
F0.0017799999999999999
sI358
F0.001635
sI359
F0.0015533333333333334
sI360
F0.0023
sI361
F0.0019633333333333334
sI362
F0.0017533333333333333
sI363
F0.0016566666666666667
sI364
F0.0017516666666666666
sI365
F0.0014499999999999999
sI366
F0.0021866666666666666
sI367
F0.0018649999999999999
sI368
F0.0019416666666666666
sI369
F0.0017783333333333334
sI370
F0.0022100000000000002
sI371
F0.0018616666666666666
sI372
F0.0016166666666666666
sI373
F0.0016949999999999999
sI374
F0.0016249999999999999
sI375
F0.0020349999999999999
sI376
F0.0020699999999999998
sI377
F0.0018416666666666666
sI378
F0.0016716666666666666
sI379
F0.0015783333333333333
sI380
F0.0019083333333333333
sI381
F0.00173
sI382
F0.0016566666666666667
sI383
F0.0015233333333333334
sI384
F0.0022799999999999999
ssg47
F0.58571166666666663
sstp54
a(g11
(tRp55
S'workload'
p56
g11
(tRp57
S'n_contents'
p58
I30000
sS'rank_per_group'
p59
F0.5
sS'name'
p60
S'DIFFRANK'
p61
sS'n_warmup'
p62
I60000
sS'rate'
p63
F300
sS'n_measured'
p64
I600000
sS'alpha'
p65
F1
sS'n_rank'
p66
I32
ssS'cache_policy'
p67
g11
(tRp68
g60
S'LRU'
p69
ssS'strategy'
p70
g11
(tRp71
g60
S'NRR'
p72
ssS'content_placement'
p73
g11
(tRp74
g60
S'UNIFORM'
p75
ssS'cache_placement'
p76
g11
(tRp77
S'network_cache'
p78
F0.10000000000000001
sg60
g75
ssS'desc'
p79
S'Alpha: 1.0, strategy: NRR,  network cache: 0.1, topology: Datacenter,  num of datastore: 1, group size: 5. '
p80
sS'topology'
p81
g11
(tRp82
S'n_node'
p83
I320
sS'n_datastore'
p84
I1
sg60
S'DATACENTER'
p85
sS'n_member'
p86
I5
ssg11
(tRp87
S'LATENCY'
p88
g11
(tRp89
S'MEAN'
p90
F33.926119999999997
ssS'CACHE_HIT_RATIO'
p91
g11
(tRp92
S'PER_NODE_SERVER_HIT_RATIO'
p93
g11
(tRp94
I0
F0.41728999999999999
ssS'PER_NODE_CACHE_HIT_RATIO'
p95
g11
(tRp96
I65
F0.0023283333333333333
sI66
F0.0017966666666666667
sI67
F0.0017133333333333334
sI68
F0.001655
sI69
F0.0015183333333333333
sI70
F0.0021283333333333332
sI71
F0.0018933333333333332
sI72
F0.00131
sI73
F0.0019366666666666666
sI74
F0.001825
sI75
F0.0013749999999999999
sI76
F0.0022899999999999999
sI77
F0.0018016666666666667
sI78
F0.0016833333333333333
sI79
F0.0017233333333333332
sI80
F0.0023900000000000002
sI81
F0.0017583333333333333
sI82
F0.001665
sI83
F0.0016066666666666666
sI84
F0.0016283333333333334
sI85
F0.0022083333333333334
sI86
F0.0017899999999999999
sI87
F0.00172
sI88
F0.0017533333333333333
sI89
F0.0017883333333333334
sI90
F0.0023016666666666667
sI91
F0.0019716666666666667
sI92
F0.0016733333333333333
sI93
F0.0015466666666666667
sI94
F0.0015833333333333333
sI95
F0.001665
sI96
F0.0022583333333333335
sI97
F0.0018433333333333333
sI98
F0.0018266666666666668
sI99
F0.0015733333333333333
sI100
F0.0022833333333333334
sI101
F0.0018733333333333334
sI102
F0.0016733333333333333
sI103
F0.0016483333333333332
sI104
F0.001755
sI105
F0.0023233333333333335
sI106
F0.0018266666666666668
sI107
F0.0017216666666666667
sI108
F0.0015966666666666666
sI109
F0.0016416666666666667
sI110
F0.0013916666666666667
sI111
F0.0021566666666666665
sI112
F0.0019866666666666665
sI113
F0.0017466666666666668
sI114
F0.0017866666666666667
sI115
F0.0023166666666666665
sI116
F0.0019350000000000001
sI117
F0.0017600000000000001
sI118
F0.0017266666666666667
sI119
F0.0013566666666666666
sI120
F0.0021933333333333332
sI121
F0.0019083333333333333
sI122
F0.0017316666666666667
sI123
F0.0016833333333333333
sI124
F0.0016916666666666666
sI125
F0.0019483333333333334
sI126
F0.0017099999999999999
sI127
F0.0013966666666666667
sI128
F0.0014383333333333333
sI129
F0.0022916666666666667
sI130
F0.0024133333333333333
sI131
F0.0019316666666666666
sI132
F0.0016949999999999999
sI133
F0.0016900000000000001
sI134
F0.0015516666666666667
sI135
F0.0021700000000000001
sI136
F0.0019283333333333333
sI137
F0.0018133333333333332
sI138
F0.0016483333333333332
sI139
F0.0016083333333333334
sI140
F0.0021683333333333333
sI141
F0.0019233333333333333
sI142
F0.0017149999999999999
sI143
F0.0013883333333333334
sI144
F0.0018416666666666666
sI145
F0.0022666666666666668
sI146
F0.0019650000000000002
sI147
F0.0018233333333333333
sI148
F0.0016233333333333334
sI149
F0.001555
sI150
F0.0020916666666666666
sI151
F0.0017266666666666667
sI152
F0.0018749999999999999
sI153
F0.0018666666666666666
sI154
F0.0017483333333333333
sI155
F0.0023383333333333333
sI156
F0.0019733333333333334
sI157
F0.0013583333333333334
sI158
F0.0016933333333333334
sI159
F0.0016783333333333333
sI160
F0.0022783333333333332
sI161
F0.0014549999999999999
sI162
F0.0018783333333333334
sI163
F0.0017149999999999999
sI164
F0.0017033333333333334
sI165
F0.0022283333333333335
sI166
F0.0017783333333333334
sI167
F0.0014683333333333334
sI168
F0.0019599999999999999
sI169
F0.001825
sI170
F0.0023549999999999999
sI171
F0.0018716666666666667
sI172
F0.001745
sI173
F0.0016066666666666666
sI174
F0.0015866666666666666
sI175
F0.0020950000000000001
sI176
F0.0019566666666666665
sI177
F0.0017750000000000001
sI178
F0.001725
sI179
F0.0016433333333333332
sI180
F0.0021033333333333334
sI181
F0.0017849999999999999
sI182
F0.001655
sI183
F0.0015916666666666666
sI184
F0.0018283333333333333
sI185
F0.0022399999999999998
sI186
F0.0020349999999999999
sI187
F0.0017683333333333333
sI188
F0.0016683333333333333
sI189
F0.0015483333333333334
sI190
F0.0018133333333333332
sI191
F0.001585
sI192
F0.0023216666666666668
sI193
F0.0014400000000000001
sI194
F0.0019066666666666668
sI195
F0.0023149999999999998
sI196
F0.0017916666666666667
sI197
F0.0018133333333333332
sI198
F0.0016616666666666668
sI199
F0.0016800000000000001
sI200
F0.0025200000000000001
sI201
F0.0017366666666666667
sI202
F0.0016816666666666666
sI203
F0.0016516666666666667
sI204
F0.0015533333333333334
sI205
F0.0021366666666666665
sI206
F0.001825
sI207
F0.0016633333333333333
sI208
F0.0017650000000000001
sI209
F0.0018033333333333334
sI210
F0.0022200000000000002
sI211
F0.0019250000000000001
sI212
F0.0018133333333333332
sI213
F0.0016199999999999999
sI214
F0.0015916666666666666
sI215
F0.0022133333333333332
sI216
F0.0020266666666666666
sI217
F0.0017566666666666666
sI218
F0.0016750000000000001
sI219
F0.0016616666666666668
sI220
F0.00182
sI221
F0.0018083333333333332
sI222
F0.0015900000000000001
sI223
F0.001655
sI224
F0.0022766666666666669
sI225
F0.0024016666666666665
sI226
F0.0019300000000000001
sI227
F0.0013733333333333334
sI228
F0.0017216666666666667
sI229
F0.0017116666666666667
sI230
F0.0020149999999999999
sI231
F0.0017683333333333333
sI232
F0.0019
sI233
F0.0016766666666666666
sI234
F0.0016000000000000001
sI235
F0.0022266666666666667
sI236
F0.0018583333333333334
sI237
F0.0017533333333333333
sI238
F0.0016783333333333333
sI239
F0.0016166666666666666
sI240
F0.0022216666666666665
sI241
F0.0018583333333333334
sI242
F0.001745
sI243
F0.0015866666666666666
sI244
F0.0016516666666666667
sI245
F0.0021133333333333334
sI246
F0.0017633333333333333
sI247
F0.001405
sI248
F0.001915
sI249
F0.0017016666666666666
sI250
F0.0021350000000000002
sI251
F0.0019350000000000001
sI252
F0.001655
sI253
F0.0016216666666666667
sI254
F0.0015266666666666666
sI255
F0.0016383333333333334
sI256
F0.0023716666666666665
sI257
F0.0018933333333333332
sI258
F0.0014599999999999999
sI259
F0.0017433333333333333
sI260
F0.0022133333333333332
sI261
F0.0017600000000000001
sI262
F0.00173
sI263
F0.0016683333333333333
sI264
F0.0017983333333333334
sI265
F0.0023133333333333335
sI266
F0.00192
sI267
F0.0017416666666666668
sI268
F0.0017099999999999999
sI269
F0.0016116666666666666
sI270
F0.0022049999999999999
sI271
F0.0017083333333333334
sI272
F0.0018266666666666668
sI273
F0.0016850000000000001
sI274
F0.0017383333333333333
sI275
F0.0023283333333333333
sI276
F0.0019183333333333333
sI277
F0.0017083333333333334
sI278
F0.0017533333333333333
sI279
F0.0016933333333333334
sI280
F0.0024466666666666669
sI281
F0.0019
sI282
F0.0017466666666666668
sI283
F0.0016416666666666667
sI284
F0.001565
sI285
F0.0017233333333333332
sI286
F0.0016816666666666666
sI287
F0.0015683333333333333
sI288
F0.0024416666666666666
sI289
F0.0018116666666666667
sI290
F0.0022483333333333335
sI291
F0.0018799999999999999
sI292
F0.0017766666666666666
sI293
F0.0016199999999999999
sI294
F0.0016366666666666667
sI295
F0.001325
sI296
F0.0023050000000000002
sI297
F0.0018316666666666668
sI298
F0.0017616666666666666
sI299
F0.0015583333333333332
sI300
F0.0021050000000000001
sI301
F0.0018866666666666667
sI302
F0.00165
sI303
F0.0017049999999999999
sI304
F0.0018
sI305
F0.00233
sI306
F0.0019316666666666666
sI307
F0.0017049999999999999
sI308
F0.0017099999999999999
sI309
F0.0015900000000000001
sI310
F0.0019849999999999998
sI311
F0.0017949999999999999
sI312
F0.0018283333333333333
sI313
F0.0018183333333333333
sI314
F0.0017533333333333333
sI315
F0.0023116666666666667
sI316
F0.0019116666666666668
sI317
F0.0017433333333333333
sI318
F0.00167
sI319
F0.0016333333333333334
sI320
F0.0021199999999999999
sI321
F0.0019266666666666666
sI322
F0.0013849999999999999
sI323
F0.0017116666666666667
sI324
F0.001735
sI325
F0.0014016666666666667
sI326
F0.0020883333333333335
sI327
F0.001815
sI328
F0.001915
sI329
F0.0013566666666666666
sI330
F0.0013766666666666667
sI331
F0.0022399999999999998
sI332
F0.0014633333333333334
sI333
F0.0018366666666666666
sI334
F0.001725
sI335
F0.0013849999999999999
sI336
F0.0023766666666666667
sI337
F0.0018600000000000001
sI338
F0.0016900000000000001
sI339
F0.0015583333333333332
sI340
F0.0022233333333333332
sI341
F0.0019283333333333333
sI342
F0.00173
sI343
F0.0016866666666666666
sI344
F0.0017866666666666667
sI345
F0.0023083333333333332
sI346
F0.0018116666666666667
sI347
F0.0017166666666666667
sI348
F0.001725
sI349
F0.0016616666666666668
sI350
F0.0016916666666666666
sI351
F0.001635
sI352
F0.0022883333333333332
sI353
F0.0018283333333333333
sI354
F0.0016816666666666666
sI355
F0.0022966666666666665
sI356
F0.0018366666666666666
sI357
F0.0017133333333333334
sI358
F0.0017233333333333332
sI359
F0.0016249999999999999
sI360
F0.0012966666666666667
sI361
F0.0022183333333333334
sI362
F0.0018383333333333333
sI363
F0.0016933333333333334
sI364
F0.0014499999999999999
sI365
F0.0022116666666666665
sI366
F0.0017183333333333334
sI367
F0.0017383333333333333
sI368
F0.00183
sI369
F0.0013666666666666666
sI370
F0.0023083333333333332
sI371
F0.0018600000000000001
sI372
F0.0017600000000000001
sI373
F0.0016166666666666666
sI374
F0.0015516666666666667
sI375
F0.0020249999999999999
sI376
F0.0019400000000000001
sI377
F0.0018166666666666667
sI378
F0.00173
sI379
F0.0017666666666666666
sI380
F0.0019599999999999999
sI381
F0.0017416666666666668
sI382
F0.001665
sI383
F0.0017149999999999999
sI384
F0.0021966666666666666
ssg90
F0.58270999999999995
sstp97
a(g11
(tRp98
S'workload'
p99
g11
(tRp100
S'n_contents'
p101
I30000
sS'rank_per_group'
p102
F1
sS'name'
p103
S'DIFFRANK'
p104
sS'n_warmup'
p105
I60000
sS'rate'
p106
F300
sS'n_measured'
p107
I600000
sS'alpha'
p108
F1
sS'n_rank'
p109
I32
ssS'cache_policy'
p110
g11
(tRp111
g103
S'LRU'
p112
ssS'strategy'
p113
g11
(tRp114
g103
S'NRR'
p115
ssS'content_placement'
p116
g11
(tRp117
g103
S'UNIFORM'
p118
ssS'cache_placement'
p119
g11
(tRp120
S'network_cache'
p121
F0.10000000000000001
sg103
g118
ssS'desc'
p122
S'Alpha: 1.0, strategy: NRR,  network cache: 0.1, topology: Datacenter,  num of datastore: 1, group size: 10. '
p123
sS'topology'
p124
g11
(tRp125
S'n_node'
p126
I320
sS'n_datastore'
p127
I1
sg103
S'DATACENTER'
p128
sS'n_member'
p129
I10
ssg11
(tRp130
S'LATENCY'
p131
g11
(tRp132
S'MEAN'
p133
F30.00648
ssS'CACHE_HIT_RATIO'
p134
g11
(tRp135
S'PER_NODE_SERVER_HIT_RATIO'
p136
g11
(tRp137
I0
F0.35610833333333336
ssS'PER_NODE_CACHE_HIT_RATIO'
p138
g11
(tRp139
I33
F0.0033866666666666667
sI34
F0.0021233333333333334
sI35
F0.00181
sI36
F0.0017533333333333333
sI37
F0.0014649999999999999
sI38
F0.0017049999999999999
sI39
F0.0016816666666666666
sI40
F0.0025950000000000001
sI41
F0.0020116666666666668
sI42
F0.0017766666666666666
sI43
F0.0030066666666666666
sI44
F0.0020249999999999999
sI45
F0.00182
sI46
F0.0014649999999999999
sI47
F0.0015683333333333333
sI48
F0.0025333333333333332
sI49
F0.0020600000000000002
sI50
F0.0019599999999999999
sI51
F0.001885
sI52
F0.0018983333333333333
sI53
F0.00299
sI54
F0.0019566666666666665
sI55
F0.0016783333333333333
sI56
F0.0014116666666666668
sI57
F0.0024166666666666668
sI58
F0.00142
sI59
F0.0021416666666666667
sI60
F0.0020033333333333335
sI61
F0.0017183333333333334
sI62
F0.0019333333333333333
sI63
F0.0016683333333333333
sI64
F0.0037750000000000001
sI65
F0.0022100000000000002
sI66
F0.0013450000000000001
sI67
F0.0019300000000000001
sI68
F0.0018833333333333334
sI69
F0.0017899999999999999
sI70
F0.0014116666666666668
sI71
F0.0017916666666666667
sI72
F0.0021900000000000001
sI73
F0.0033183333333333333
sI74
F0.0021250000000000002
sI75
F0.0018600000000000001
sI76
F0.0017166666666666667
sI77
F0.0016299999999999999
sI78
F0.0015066666666666666
sI79
F0.00156
sI80
F0.0025300000000000001
sI81
F0.0020883333333333335
sI82
F0.0017433333333333333
sI83
F0.0029299999999999999
sI84
F0.0019350000000000001
sI85
F0.00183
sI86
F0.0016366666666666667
sI87
F0.0016249999999999999
sI88
F0.0025183333333333334
sI89
F0.0022316666666666665
sI90
F0.0021316666666666667
sI91
F0.00182
sI92
F0.0018266666666666668
sI93
F0.00174
sI94
F0.0016016666666666666
sI95
F0.0015316666666666666
sI96
F0.0036800000000000001
sI97
F0.0024283333333333331
sI98
F0.0020516666666666665
sI99
F0.0014033333333333333
sI100
F0.0018550000000000001
sI101
F0.0017533333333333333
sI102
F0.0017966666666666667
sI103
F0.0027883333333333332
sI104
F0.0026983333333333334
sI105
F0.0021450000000000002
sI106
F0.0018666666666666666
sI107
F0.0013233333333333333
sI108
F0.0017466666666666668
sI109
F0.0018633333333333334
sI110
F0.0018016666666666667
sI111
F0.0016983333333333334
sI112
F0.0021516666666666667
sI113
F0.003385
sI114
F0.0021283333333333332
sI115
F0.0018633333333333334
sI116
F0.001635
sI117
F0.0016666666666666668
sI118
F0.0015566666666666667
sI119
F0.0016949999999999999
sI120
F0.00249
sI121
F0.0020233333333333331
sI122
F0.0017566666666666666
sI123
F0.0020316666666666669
sI124
F0.0013283333333333333
sI125
F0.0018116666666666667
sI126
F0.0016366666666666667
sI127
F0.0016116666666666666
sI128
F0.0034066666666666668
sI129
F0.0023783333333333334
sI130
F0.0020883333333333335
sI131
F0.0018516666666666666
sI132
F0.00175
sI133
F0.0027666666666666668
sI134
F0.0019250000000000001
sI135
F0.00175
sI136
F0.0024433333333333334
sI137
F0.0022566666666666668
sI138
F0.0019449999999999999
sI139
F0.0019466666666666666
sI140
F0.0018266666666666668
sI141
F0.0016383333333333334
sI142
F0.0014716666666666667
sI143
F0.0027033333333333332
sI144
F0.0027816666666666667
sI145
F0.0021050000000000001
sI146
F0.0019849999999999998
sI147
F0.0017283333333333332
sI148
F0.0013333333333333333
sI149
F0.0018483333333333333
sI150
F0.00172
sI151
F0.0017433333333333333
sI152
F0.0022899999999999999
sI153
F0.0022300000000000002
sI154
F0.0019816666666666667
sI155
F0.0017516666666666666
sI156
F0.0016366666666666667
sI157
F0.0016883333333333334
sI158
F0.0017033333333333334
sI159
F0.0016133333333333334
sI160
F0.0035883333333333331
sI161
F0.0023500000000000001
sI162
F0.0019033333333333333
sI163
F0.0030916666666666666
sI164
F0.0018133333333333332
sI165
F0.0017083333333333334
sI166
F0.0016066666666666666
sI167
F0.0016683333333333333
sI168
F0.0025000000000000001
sI169
F0.00216
sI170
F0.00199
sI171
F0.0018516666666666666
sI172
F0.0018016666666666667
sI173
F0.0027566666666666668
sI174
F0.0019400000000000001
sI175
F0.0017266666666666667
sI176
F0.0025466666666666667
sI177
F0.0021816666666666668
sI178
F0.0019783333333333332
sI179
F0.0018766666666666667
sI180
F0.0017333333333333333
sI181
F0.0018233333333333333
sI182
F0.0016050000000000001
sI183
F0.0019116666666666668
sI184
F0.0026116666666666667
sI185
F0.0021283333333333332
sI186
F0.0019083333333333333
sI187
F0.0018266666666666668
sI188
F0.0017933333333333334
sI189
F0.0017116666666666667
sI190
F0.0015983333333333333
sI191
F0.0016583333333333333
sI192
F0.0033983333333333335
sI193
F0.0034266666666666668
sI194
F0.0014333333333333333
sI195
F0.00182
sI196
F0.0018033333333333334
sI197
F0.0017600000000000001
sI198
F0.0016033333333333333
sI199
F0.0017116666666666667
sI200
F0.0025600000000000002
sI201
F0.0019016666666666667
sI202
F0.001835
sI203
F0.0030249999999999999
sI204
F0.0014133333333333333
sI205
F0.00189
sI206
F0.0019216666666666666
sI207
F0.0017216666666666667
sI208
F0.0024316666666666666
sI209
F0.0022899999999999999
sI210
F0.0020666666666666667
sI211
F0.0013966666666666667
sI212
F0.00183
sI213
F0.0029616666666666667
sI214
F0.0019849999999999998
sI215
F0.0017333333333333333
sI216
F0.0025966666666666668
sI217
F0.0014466666666666666
sI218
F0.0021849999999999999
sI219
F0.0019400000000000001
sI220
F0.0019466666666666666
sI221
F0.0014883333333333333
sI222
F0.00134
sI223
F0.0015816666666666668
sI224
F0.0035916666666666666
sI225
F0.0022750000000000001
sI226
F0.0018799999999999999
sI227
F0.0019300000000000001
sI228
F0.001805
sI229
F0.0017216666666666667
sI230
F0.001395
sI231
F0.0017083333333333334
sI232
F0.0021299999999999999
sI233
F0.0033549999999999999
sI234
F0.0021649999999999998
sI235
F0.0018083333333333332
sI236
F0.001915
sI237
F0.0016850000000000001
sI238
F0.0015516666666666667
sI239
F0.0016016666666666666
sI240
F0.0023783333333333334
sI241
F0.0018633333333333334
sI242
F0.0017849999999999999
sI243
F0.0028316666666666668
sI244
F0.0019816666666666667
sI245
F0.0017099999999999999
sI246
F0.0016583333333333333
sI247
F0.0016233333333333334
sI248
F0.0024283333333333331
sI249
F0.0022333333333333333
sI250
F0.0020249999999999999
sI251
F0.0018550000000000001
sI252
F0.0017916666666666667
sI253
F0.0014916666666666667
sI254
F0.0013699999999999999
sI255
F0.0016783333333333333
sI256
F0.0037866666666666665
sI257
F0.0025100000000000001
sI258
F0.002
sI259
F0.0018600000000000001
sI260
F0.0017816666666666666
sI261
F0.0017600000000000001
sI262
F0.0017183333333333334
sI263
F0.00142
sI264
F0.0035633333333333333
sI265
F0.0022316666666666665
sI266
F0.0020500000000000002
sI267
F0.0017583333333333333
sI268
F0.0016433333333333332
sI269
F0.00174
sI270
F0.0016483333333333332
sI271
F0.0017083333333333334
sI272
F0.0022366666666666668
sI273
F0.0032283333333333335
sI274
F0.0021266666666666665
sI275
F0.0018616666666666666
sI276
F0.0017416666666666668
sI277
F0.0016683333333333333
sI278
F0.0016933333333333334
sI279
F0.0017066666666666667
sI280
F0.0024666666666666665
sI281
F0.0019866666666666665
sI282
F0.0018550000000000001
sI283
F0.0017650000000000001
sI284
F0.0015916666666666666
sI285
F0.0017099999999999999
sI286
F0.0016149999999999999
sI287
F0.0016183333333333334
sI288
F0.0036883333333333334
sI289
F0.0024250000000000001
sI290
F0.0021016666666666666
sI291
F0.0019083333333333333
sI292
F0.0018883333333333332
sI293
F0.0013916666666666667
sI294
F0.0028833333333333332
sI295
F0.0018583333333333334
sI296
F0.0026250000000000002
sI297
F0.0022816666666666667
sI298
F0.0019566666666666665
sI299
F0.0014
sI300
F0.0019966666666666666
sI301
F0.0018466666666666666
sI302
F0.0017533333333333333
sI303
F0.0026549999999999998
sI304
F0.0029033333333333333
sI305
F0.0021583333333333333
sI306
F0.0019783333333333332
sI307
F0.0016933333333333334
sI308
F0.0017799999999999999
sI309
F0.0017616666666666666
sI310
F0.0016116666666666666
sI311
F0.00167
sI312
F0.0021416666666666667
sI313
F0.0021949999999999999
sI314
F0.0018283333333333333
sI315
F0.0017216666666666667
sI316
F0.00172
sI317
F0.0017433333333333333
sI318
F0.001655
sI319
F0.0015866666666666666
sI320
F0.0035533333333333333
sI321
F0.0022333333333333333
sI322
F0.0018116666666666667
sI323
F0.0030633333333333333
sI324
F0.0020066666666666666
sI325
F0.0018183333333333333
sI326
F0.0016233333333333334
sI327
F0.0015683333333333333
sI328
F0.0014250000000000001
sI329
F0.0024099999999999998
sI330
F0.0022633333333333333
sI331
F0.0020783333333333335
sI332
F0.002
sI333
F0.0027799999999999999
sI334
F0.0017966666666666667
sI335
F0.0017233333333333332
sI336
F0.0025999999999999999
sI337
F0.0022200000000000002
sI338
F0.0020683333333333335
sI339
F0.0018966666666666667
sI340
F0.0017600000000000001
sI341
F0.0016299999999999999
sI342
F0.0017083333333333334
sI343
F0.0018516666666666666
sI344
F0.0025583333333333335
sI345
F0.002075
sI346
F0.0018500000000000001
sI347
F0.0018666666666666666
sI348
F0.0017483333333333333
sI349
F0.0016716666666666666
sI350
F0.0016116666666666666
sI351
F0.0017216666666666667
sI352
F0.0034283333333333331
ssg133
F0.64389166666666664
sstp140
a(g11
(tRp141
S'workload'
p142
g11
(tRp143
S'n_contents'
p144
I30000
sS'rank_per_group'
p145
F1
sS'name'
p146
S'DIFFRANK'
p147
sS'n_warmup'
p148
I60000
sS'rate'
p149
F300
sS'n_measured'
p150
I600000
sS'alpha'
p151
F1
sS'n_rank'
p152
I32
ssS'cache_policy'
p153
g11
(tRp154
g146
S'LRU'
p155
ssS'strategy'
p156
g11
(tRp157
g146
S'NRR'
p158
ssS'content_placement'
p159
g11
(tRp160
g146
S'UNIFORM'
p161
ssS'cache_placement'
p162
g11
(tRp163
S'network_cache'
p164
F0.10000000000000001
sg146
g161
ssS'desc'
p165
S'Alpha: 1.0, strategy: NRR,  network cache: 0.1, topology: Datacenter,  num of datastore: 1, group size: 10. '
p166
sS'topology'
p167
g11
(tRp168
S'n_node'
p169
I320
sS'n_datastore'
p170
I1
sg146
S'DATACENTER'
p171
sS'n_member'
p172
I10
ssg11
(tRp173
S'LATENCY'
p174
g11
(tRp175
S'MEAN'
p176
F30.186626666666665
ssS'CACHE_HIT_RATIO'
p177
g11
(tRp178
S'PER_NODE_SERVER_HIT_RATIO'
p179
g11
(tRp180
I0
F0.35534166666666667
ssS'PER_NODE_CACHE_HIT_RATIO'
p181
g11
(tRp182
I33
F0.0032733333333333334
sI34
F0.001305
sI35
F0.0013766666666666667
sI36
F0.0014300000000000001
sI37
F0.0021549999999999998
sI38
F0.0018866666666666667
sI39
F0.0017949999999999999
sI40
F0.002565
sI41
F0.0019233333333333333
sI42
F0.0014083333333333333
sI43
F0.0029966666666666666
sI44
F0.0020583333333333335
sI45
F0.0017833333333333334
sI46
F0.0016783333333333333
sI47
F0.0015866666666666666
sI48
F0.0025500000000000002
sI49
F0.0021683333333333333
sI50
F0.0019766666666666665
sI51
F0.0019616666666666667
sI52
F0.0014433333333333334
sI53
F0.0029766666666666665
sI54
F0.0019566666666666665
sI55
F0.0018333333333333333
sI56
F0.0025316666666666669
sI57
F0.0021150000000000001
sI58
F0.001495
sI59
F0.0019949999999999998
sI60
F0.0018916666666666667
sI61
F0.0018
sI62
F0.0016866666666666666
sI63
F0.0016883333333333334
sI64
F0.0036383333333333333
sI65
F0.0022483333333333335
sI66
F0.0020300000000000001
sI67
F0.00141
sI68
F0.0017383333333333333
sI69
F0.0014516666666666666
sI70
F0.0017116666666666667
sI71
F0.0018550000000000001
sI72
F0.0022583333333333335
sI73
F0.0034749999999999998
sI74
F0.0021849999999999999
sI75
F0.0018550000000000001
sI76
F0.0017183333333333334
sI77
F0.0016850000000000001
sI78
F0.00166
sI79
F0.001485
sI80
F0.0024650000000000002
sI81
F0.0019750000000000002
sI82
F0.0017066666666666667
sI83
F0.0029166666666666668
sI84
F0.00182
sI85
F0.0017383333333333333
sI86
F0.0017066666666666667
sI87
F0.0016016666666666666
sI88
F0.0025866666666666668
sI89
F0.0021900000000000001
sI90
F0.0020216666666666668
sI91
F0.0020166666666666666
sI92
F0.0018083333333333332
sI93
F0.001815
sI94
F0.001665
sI95
F0.0015766666666666668
sI96
F0.0036783333333333334
sI97
F0.0024616666666666667
sI98
F0.0020466666666666667
sI99
F0.0018616666666666666
sI100
F0.0018583333333333334
sI101
F0.0017716666666666666
sI102
F0.0017083333333333334
sI103
F0.0027833333333333334
sI104
F0.0027083333333333334
sI105
F0.0022283333333333335
sI106
F0.0021150000000000001
sI107
F0.0018766666666666667
sI108
F0.0017683333333333333
sI109
F0.0017799999999999999
sI110
F0.0017433333333333333
sI111
F0.0016483333333333332
sI112
F0.0013916666666666667
sI113
F0.0034833333333333335
sI114
F0.0020899999999999998
sI115
F0.0019300000000000001
sI116
F0.0017433333333333333
sI117
F0.0016633333333333333
sI118
F0.0016683333333333333
sI119
F0.0016966666666666666
sI120
F0.002415
sI121
F0.0020083333333333333
sI122
F0.0014683333333333334
sI123
F0.001415
sI124
F0.0017066666666666667
sI125
F0.0017233333333333332
sI126
F0.0014400000000000001
sI127
F0.0016933333333333334
sI128
F0.0037550000000000001
sI129
F0.0024416666666666666
sI130
F0.0019916666666666668
sI131
F0.0018983333333333333
sI132
F0.0019916666666666668
sI133
F0.0030000000000000001
sI134
F0.0019400000000000001
sI135
F0.0016299999999999999
sI136
F0.0024183333333333335
sI137
F0.0023016666666666667
sI138
F0.0021800000000000001
sI139
F0.0019133333333333333
sI140
F0.001885
sI141
F0.0017383333333333333
sI142
F0.001835
sI143
F0.0027366666666666668
sI144
F0.0027316666666666665
sI145
F0.0020466666666666667
sI146
F0.0019750000000000002
sI147
F0.0017983333333333334
sI148
F0.0016983333333333334
sI149
F0.0017266666666666667
sI150
F0.0017049999999999999
sI151
F0.0016716666666666666
sI152
F0.0021649999999999998
sI153
F0.0025249999999999999
sI154
F0.0020566666666666667
sI155
F0.0018533333333333334
sI156
F0.0017650000000000001
sI157
F0.0016633333333333333
sI158
F0.0017333333333333333
sI159
F0.0016433333333333332
sI160
F0.0014366666666666666
sI161
F0.0032466666666666668
sI162
F0.0022333333333333333
sI163
F0.0029849999999999998
sI164
F0.0019183333333333333
sI165
F0.0018166666666666667
sI166
F0.001755
sI167
F0.0016933333333333334
sI168
F0.0023516666666666668
sI169
F0.0023266666666666666
sI170
F0.0020300000000000001
sI171
F0.0018500000000000001
sI172
F0.0014133333333333333
sI173
F0.0013316666666666668
sI174
F0.0027433333333333333
sI175
F0.001305
sI176
F0.0026516666666666668
sI177
F0.0024016666666666665
sI178
F0.0020983333333333331
sI179
F0.0019133333333333333
sI180
F0.0018583333333333334
sI181
F0.0017066666666666667
sI182
F0.0018066666666666667
sI183
F0.0018550000000000001
sI184
F0.0025416666666666665
sI185
F0.0020016666666666668
sI186
F0.0018133333333333332
sI187
F0.0018183333333333333
sI188
F0.0017266666666666667
sI189
F0.0016283333333333334
sI190
F0.0017233333333333332
sI191
F0.0014766666666666667
sI192
F0.0034533333333333334
sI193
F0.0032499999999999999
sI194
F0.0022283333333333335
sI195
F0.0018316666666666668
sI196
F0.0016116666666666666
sI197
F0.0017166666666666667
sI198
F0.0015950000000000001
sI199
F0.0016466666666666667
sI200
F0.0025366666666666667
sI201
F0.0020266666666666666
sI202
F0.0018366666666666666
sI203
F0.0029816666666666668
sI204
F0.0020349999999999999
sI205
F0.0017666666666666666
sI206
F0.0016866666666666666
sI207
F0.0016066666666666666
sI208
F0.0023533333333333331
sI209
F0.0022333333333333333
sI210
F0.0019433333333333334
sI211
F0.0018316666666666668
sI212
F0.0017566666666666666
sI213
F0.0029283333333333331
sI214
F0.0018816666666666667
sI215
F0.0017700000000000001
sI216
F0.0024533333333333334
sI217
F0.0022616666666666666
sI218
F0.0020100000000000001
sI219
F0.0019599999999999999
sI220
F0.0018433333333333333
sI221
F0.00175
sI222
F0.0016416666666666667
sI223
F0.0016750000000000001
sI224
F0.0036350000000000002
sI225
F0.0022550000000000001
sI226
F0.0018883333333333332
sI227
F0.0017783333333333334
sI228
F0.0018083333333333332
sI229
F0.00175
sI230
F0.0016883333333333334
sI231
F0.0015216666666666666
sI232
F0.0021316666666666667
sI233
F0.0033349999999999999
sI234
F0.00197
sI235
F0.0019516666666666667
sI236
F0.0018816666666666667
sI237
F0.0016716666666666666
sI238
F0.0016283333333333334
sI239
F0.0015
sI240
F0.0025283333333333334
sI241
F0.0019416666666666666
sI242
F0.0018400000000000001
sI243
F0.0029433333333333334
sI244
F0.0018500000000000001
sI245
F0.00172
sI246
F0.0016416666666666667
sI247
F0.001475
sI248
F0.0025666666666666667
sI249
F0.0021849999999999999
sI250
F0.0019250000000000001
sI251
F0.0018283333333333333
sI252
F0.0018133333333333332
sI253
F0.0018550000000000001
sI254
F0.0016233333333333334
sI255
F0.0016066666666666666
sI256
F0.0037166666666666667
sI257
F0.0024366666666666668
sI258
F0.00141
sI259
F0.0020433333333333332
sI260
F0.0018366666666666666
sI261
F0.0018183333333333333
sI262
F0.0017716666666666666
sI263
F0.0027383333333333335
sI264
F0.0027699999999999999
sI265
F0.0023833333333333332
sI266
F0.0020866666666666668
sI267
F0.0018649999999999999
sI268
F0.0018450000000000001
sI269
F0.0017149999999999999
sI270
F0.00165
sI271
F0.0017116666666666667
sI272
F0.0013283333333333333
sI273
F0.0033216666666666668
sI274
F0.0020300000000000001
sI275
F0.0017666666666666666
sI276
F0.0017166666666666667
sI277
F0.0016666666666666668
sI278
F0.0016850000000000001
sI279
F0.0016183333333333334
sI280
F0.002555
sI281
F0.0020266666666666666
sI282
F0.0018816666666666667
sI283
F0.001835
sI284
F0.0017033333333333334
sI285
F0.0014116666666666668
sI286
F0.0017016666666666666
sI287
F0.0014083333333333333
sI288
F0.0036566666666666666
sI289
F0.0024433333333333334
sI290
F0.0020466666666666667
sI291
F0.0018816666666666667
sI292
F0.0018383333333333333
sI293
F0.0014183333333333333
sI294
F0.0028966666666666667
sI295
F0.0014266666666666666
sI296
F0.0027166666666666667
sI297
F0.0023816666666666665
sI298
F0.0020400000000000001
sI299
F0.0019666666666666665
sI300
F0.0017933333333333334
sI301
F0.0018066666666666667
sI302
F0.0017083333333333334
sI303
F0.0028633333333333332
sI304
F0.0026683333333333333
sI305
F0.0021316666666666667
sI306
F0.0019233333333333333
sI307
F0.0017366666666666667
sI308
F0.0018633333333333334
sI309
F0.0017066666666666667
sI310
F0.00157
sI311
F0.0017149999999999999
sI312
F0.002225
sI313
F0.0022033333333333332
sI314
F0.0018583333333333334
sI315
F0.0016433333333333332
sI316
F0.0016916666666666666
sI317
F0.0016583333333333333
sI318
F0.0016466666666666667
sI319
F0.00166
sI320
F0.0036316666666666667
sI321
F0.0022816666666666667
sI322
F0.0017650000000000001
sI323
F0.0029299999999999999
sI324
F0.0019216666666666666
sI325
F0.0016883333333333334
sI326
F0.0017266666666666667
sI327
F0.0015816666666666668
sI328
F0.0023666666666666667
sI329
F0.0022399999999999998
sI330
F0.001315
sI331
F0.0020366666666666667
sI332
F0.0017433333333333333
sI333
F0.0028900000000000002
sI334
F0.0018833333333333334
sI335
F0.00166
sI336
F0.0025666666666666667
sI337
F0.0013500000000000001
sI338
F0.0021183333333333332
sI339
F0.0021533333333333335
sI340
F0.0018483333333333333
sI341
F0.0017416666666666668
sI342
F0.0018033333333333334
sI343
F0.0018716666666666667
sI344
F0.0024450000000000001
sI345
F0.0021366666666666665
sI346
F0.0020233333333333331
sI347
F0.0017733333333333334
sI348
F0.0018466666666666666
sI349
F0.001735
sI350
F0.0016216666666666667
sI351
F0.0016616666666666668
sI352
F0.0034616666666666667
ssg176
F0.64465833333333333
sstp183
a(g11
(tRp184
S'workload'
p185
g11
(tRp186
S'n_contents'
p187
I30000
sS'rank_per_group'
p188
F0.20000000000000001
sS'name'
p189
S'DIFFRANK'
p190
sS'n_warmup'
p191
I60000
sS'rate'
p192
F300
sS'n_measured'
p193
I600000
sS'alpha'
p194
F1
sS'n_rank'
p195
I32
ssS'cache_policy'
p196
g11
(tRp197
g189
S'LRU'
p198
ssS'strategy'
p199
g11
(tRp200
g189
S'NRR'
p201
ssS'content_placement'
p202
g11
(tRp203
g189
S'UNIFORM'
p204
ssS'cache_placement'
p205
g11
(tRp206
S'network_cache'
p207
F0.10000000000000001
sg189
g204
ssS'desc'
p208
S'Alpha: 1.0, strategy: NRR,  network cache: 0.1, topology: Datacenter,  num of datastore: 1, group size: 2. '
p209
sS'topology'
p210
g11
(tRp211
S'n_node'
p212
I320
sS'n_datastore'
p213
I1
sg189
S'DATACENTER'
p214
sS'n_member'
p215
I2
ssg11
(tRp216
S'LATENCY'
p217
g11
(tRp218
S'MEAN'
p219
F37.431753333333333
ssS'CACHE_HIT_RATIO'
p220
g11
(tRp221
S'PER_NODE_SERVER_HIT_RATIO'
p222
g11
(tRp223
I0
F0.49412666666666666
ssS'PER_NODE_CACHE_HIT_RATIO'
p224
g11
(tRp225
I161
F0.0016733333333333333
sI162
F0.0015816666666666668
sI163
F0.00156
sI164
F0.0017016666666666666
sI165
F0.0015900000000000001
sI166
F0.0016199999999999999
sI167
F0.0015816666666666668
sI168
F0.0015900000000000001
sI169
F0.0015533333333333334
sI170
F0.0015883333333333333
sI171
F0.0014649999999999999
sI172
F0.0016066666666666666
sI173
F0.0016900000000000001
sI174
F0.0016416666666666667
sI175
F0.0015466666666666667
sI176
F0.0014666666666666667
sI177
F0.0014933333333333333
sI178
F0.0015466666666666667
sI179
F0.0015833333333333333
sI180
F0.001555
sI181
F0.0015449999999999999
sI182
F0.0015616666666666667
sI183
F0.001575
sI184
F0.0015966666666666666
sI185
F0.0016166666666666666
sI186
F0.0016716666666666666
sI187
F0.00166
sI188
F0.0015916666666666666
sI189
F0.0016750000000000001
sI190
F0.0016633333333333333
sI191
F0.0015150000000000001
sI192
F0.0015516666666666667
sI193
F0.0016199999999999999
sI194
F0.0015183333333333333
sI195
F0.0015583333333333332
sI196
F0.0015316666666666666
sI197
F0.0016533333333333333
sI198
F0.0016133333333333334
sI199
F0.0016166666666666666
sI200
F0.0016483333333333332
sI201
F0.0016900000000000001
sI202
F0.0016266666666666667
sI203
F0.0016716666666666666
sI204
F0.0016100000000000001
sI205
F0.0015633333333333332
sI206
F0.0015950000000000001
sI207
F0.00157
sI208
F0.0015666666666666667
sI209
F0.0016199999999999999
sI210
F0.0015900000000000001
sI211
F0.001575
sI212
F0.00164
sI213
F0.001655
sI214
F0.0015583333333333332
sI215
F0.0015183333333333333
sI216
F0.0014816666666666667
sI217
F0.0016249999999999999
sI218
F0.0015883333333333333
sI219
F0.0016916666666666666
sI220
F0.0016466666666666667
sI221
F0.0016000000000000001
sI222
F0.0015566666666666667
sI223
F0.0015233333333333334
sI224
F0.0013516666666666666
sI225
F0.0016083333333333334
sI226
F0.0015100000000000001
sI227
F0.0015416666666666667
sI228
F0.0015433333333333334
sI229
F0.0015666666666666667
sI230
F0.0016916666666666666
sI231
F0.0015900000000000001
sI232
F0.0015783333333333333
sI233
F0.0016366666666666667
sI234
F0.00158
sI235
F0.0016066666666666666
sI236
F0.0015449999999999999
sI237
F0.0014283333333333333
sI238
F0.0015933333333333333
sI239
F0.0016366666666666667
sI240
F0.0016566666666666667
sI241
F0.0016066666666666666
sI242
F0.0015633333333333332
sI243
F0.0015983333333333333
sI244
F0.0015616666666666667
sI245
F0.00156
sI246
F0.0016116666666666666
sI247
F0.0016516666666666667
sI248
F0.0015399999999999999
sI249
F0.0015966666666666666
sI250
F0.00166
sI251
F0.0016199999999999999
sI252
F0.0017083333333333334
sI253
F0.0015166666666666666
sI254
F0.0016083333333333334
sI255
F0.0016083333333333334
sI256
F0.001505
sI257
F0.0017133333333333334
sI258
F0.0015983333333333333
sI259
F0.0016116666666666666
sI260
F0.0015616666666666667
sI261
F0.0016366666666666667
sI262
F0.0015333333333333334
sI263
F0.0015866666666666666
sI264
F0.0014683333333333334
sI265
F0.0016149999999999999
sI266
F0.0015833333333333333
sI267
F0.0015916666666666666
sI268
F0.0015533333333333334
sI269
F0.0015883333333333333
sI270
F0.0015116666666666666
sI271
F0.0015633333333333332
sI272
F0.0016249999999999999
sI273
F0.0015316666666666666
sI274
F0.0016216666666666667
sI275
F0.0015666666666666667
sI276
F0.0016316666666666667
sI277
F0.0015533333333333334
sI278
F0.0015616666666666667
sI279
F0.0015833333333333333
sI280
F0.0016383333333333334
sI281
F0.0016366666666666667
sI282
F0.0015933333333333333
sI283
F0.0015833333333333333
sI284
F0.00157
sI285
F0.0014633333333333334
sI286
F0.00158
sI287
F0.0015133333333333333
sI288
F0.0015516666666666667
sI289
F0.00165
sI290
F0.0016266666666666667
sI291
F0.0015866666666666666
sI292
F0.0016216666666666667
sI293
F0.0015916666666666666
sI294
F0.0014733333333333334
sI295
F0.0016100000000000001
sI296
F0.0016633333333333333
sI297
F0.0015133333333333333
sI298
F0.0012916666666666667
sI299
F0.0015883333333333333
sI300
F0.0016683333333333333
sI301
F0.0015783333333333333
sI302
F0.0016149999999999999
sI303
F0.0016816666666666666
sI304
F0.0015016666666666668
sI305
F0.0015950000000000001
sI306
F0.0015783333333333333
sI307
F0.0016316666666666667
sI308
F0.0014116666666666668
sI309
F0.0016249999999999999
sI310
F0.0015950000000000001
sI311
F0.0015449999999999999
sI312
F0.0016233333333333334
sI313
F0.001585
sI314
F0.0015966666666666666
sI315
F0.0016616666666666668
sI316
F0.001575
sI317
F0.00165
sI318
F0.0015916666666666666
sI319
F0.0016433333333333332
sI320
F0.0015266666666666666
sI321
F0.0012600000000000001
sI322
F0.0016666666666666668
sI323
F0.00164
sI324
F0.0016283333333333334
sI325
F0.0016433333333333332
sI326
F0.0015299999999999999
sI327
F0.0015933333333333333
sI328
F0.001405
sI329
F0.0015333333333333334
sI330
F0.0015900000000000001
sI331
F0.0015233333333333334
sI332
F0.00165
sI333
F0.0015466666666666667
sI334
F0.001585
sI335
F0.0014416666666666666
sI336
F0.0015733333333333333
sI337
F0.0016416666666666667
sI338
F0.0016000000000000001
sI339
F0.00156
sI340
F0.0015250000000000001
sI341
F0.0016100000000000001
sI342
F0.0015966666666666666
sI343
F0.0016833333333333333
sI344
F0.0016299999999999999
sI345
F0.0015483333333333334
sI346
F0.0016833333333333333
sI347
F0.0016733333333333333
sI348
F0.0016750000000000001
sI349
F0.0016016666666666666
sI350
F0.0016066666666666666
sI351
F0.0015483333333333334
sI352
F0.0014983333333333333
sI353
F0.0016466666666666667
sI354
F0.0016016666666666666
sI355
F0.0015966666666666666
sI356
F0.0015900000000000001
sI357
F0.0016133333333333334
sI358
F0.0015299999999999999
sI359
F0.0015733333333333333
sI360
F0.0016883333333333334
sI361
F0.0013500000000000001
sI362
F0.0017099999999999999
sI363
F0.0014816666666666667
sI364
F0.0015816666666666668
sI365
F0.0014783333333333332
sI366
F0.0015183333333333333
sI367
F0.0014566666666666667
sI368
F0.0016900000000000001
sI369
F0.0015883333333333333
sI370
F0.0015633333333333332
sI371
F0.001565
sI372
F0.0015100000000000001
sI373
F0.0016000000000000001
sI374
F0.0016866666666666666
sI375
F0.0016149999999999999
sI376
F0.0015499999999999999
sI377
F0.0015966666666666666
sI378
F0.0015299999999999999
sI379
F0.0015449999999999999
sI380
F0.0015333333333333334
sI381
F0.0015900000000000001
sI382
F0.0014300000000000001
sI383
F0.0016283333333333334
sI384
F0.0015933333333333333
sI385
F0.0014266666666666666
sI386
F0.0016116666666666666
sI387
F0.0015966666666666666
sI388
F0.0016066666666666666
sI389
F0.0015066666666666666
sI390
F0.0014916666666666667
sI391
F0.0015433333333333334
sI392
F0.0015133333333333333
sI393
F0.001735
sI394
F0.0014716666666666667
sI395
F0.0014599999999999999
sI396
F0.0016533333333333333
sI397
F0.0016016666666666666
sI398
F0.0015433333333333334
sI399
F0.0016050000000000001
sI400
F0.0016100000000000001
sI401
F0.0015583333333333332
sI402
F0.0013933333333333332
sI403
F0.0016083333333333334
sI404
F0.0016233333333333334
sI405
F0.0016100000000000001
sI406
F0.0015499999999999999
sI407
F0.0015216666666666666
sI408
F0.0015583333333333332
sI409
F0.0013866666666666667
sI410
F0.001565
sI411
F0.00164
sI412
F0.0016299999999999999
sI413
F0.0014533333333333334
sI414
F0.0015416666666666667
sI415
F0.0015783333333333333
sI416
F0.0016199999999999999
sI417
F0.0015933333333333333
sI418
F0.0015349999999999999
sI419
F0.0016050000000000001
sI420
F0.0015066666666666666
sI421
F0.0015250000000000001
sI422
F0.0014866666666666667
sI423
F0.0014233333333333333
sI424
F0.0016033333333333333
sI425
F0.0015266666666666666
sI426
F0.0015683333333333333
sI427
F0.0015333333333333334
sI428
F0.0015366666666666666
sI429
F0.0015083333333333333
sI430
F0.0016266666666666667
sI431
F0.0015266666666666666
sI432
F0.001555
sI433
F0.001565
sI434
F0.0016183333333333334
sI435
F0.0016283333333333334
sI436
F0.0016000000000000001
sI437
F0.0016566666666666667
sI438
F0.0016516666666666667
sI439
F0.0015466666666666667
sI440
F0.0016000000000000001
sI441
F0.0016583333333333333
sI442
F0.0015950000000000001
sI443
F0.0015816666666666668
sI444
F0.0016133333333333334
sI445
F0.0015299999999999999
sI446
F0.0016116666666666666
sI447
F0.0016283333333333334
sI448
F0.0016483333333333332
sI449
F0.001555
sI450
F0.0015333333333333334
sI451
F0.0015583333333333332
sI452
F0.0016566666666666667
sI453
F0.0015900000000000001
sI454
F0.0015966666666666666
sI455
F0.0016366666666666667
sI456
F0.0016383333333333334
sI457
F0.0015349999999999999
sI458
F0.001575
sI459
F0.0016149999999999999
sI460
F0.0015449999999999999
sI461
F0.0016199999999999999
sI462
F0.0016316666666666667
sI463
F0.0015683333333333333
sI464
F0.0016516666666666667
sI465
F0.0015416666666666667
sI466
F0.0015900000000000001
sI467
F0.001725
sI468
F0.0016566666666666667
sI469
F0.0017516666666666666
sI470
F0.0016066666666666666
sI471
F0.0016816666666666666
sI472
F0.00172
sI473
F0.001575
sI474
F0.0015399999999999999
sI475
F0.0014233333333333333
sI476
F0.00156
sI477
F0.0014666666666666667
sI478
F0.0015916666666666666
sI479
F0.0015883333333333333
sI480
F0.001635
ssg219
F0.50587333333333329
sstp226
a(g11
(tRp227
S'workload'
p228
g11
(tRp229
S'n_contents'
p230
I30000
sS'rank_per_group'
p231
F0.20000000000000001
sS'name'
p232
S'DIFFRANK'
p233
sS'n_warmup'
p234
I60000
sS'rate'
p235
F300
sS'n_measured'
p236
I600000
sS'alpha'
p237
F1
sS'n_rank'
p238
I32
ssS'cache_policy'
p239
g11
(tRp240
g232
S'LRU'
p241
ssS'strategy'
p242
g11
(tRp243
g232
S'NRR'
p244
ssS'content_placement'
p245
g11
(tRp246
g232
S'UNIFORM'
p247
ssS'cache_placement'
p248
g11
(tRp249
S'network_cache'
p250
F0.10000000000000001
sg232
g247
ssS'desc'
p251
S'Alpha: 1.0, strategy: NRR,  network cache: 0.1, topology: Datacenter,  num of datastore: 1, group size: 2. '
p252
sS'topology'
p253
g11
(tRp254
S'n_node'
p255
I320
sS'n_datastore'
p256
I1
sg232
S'DATACENTER'
p257
sS'n_member'
p258
I2
ssg11
(tRp259
S'LATENCY'
p260
g11
(tRp261
S'MEAN'
p262
F38.123973333333332
ssS'CACHE_HIT_RATIO'
p263
g11
(tRp264
S'PER_NODE_SERVER_HIT_RATIO'
p265
g11
(tRp266
I0
F0.49524666666666667
ssS'PER_NODE_CACHE_HIT_RATIO'
p267
g11
(tRp268
I161
F0.0015916666666666666
sI162
F0.00164
sI163
F0.001555
sI164
F0.0015966666666666666
sI165
F0.0016249999999999999
sI166
F0.0015483333333333334
sI167
F0.0015916666666666666
sI168
F0.0016083333333333334
sI169
F0.0015283333333333334
sI170
F0.0015349999999999999
sI171
F0.0016199999999999999
sI172
F0.0015449999999999999
sI173
F0.0016333333333333334
sI174
F0.0013716666666666667
sI175
F0.001575
sI176
F0.0015933333333333333
sI177
F0.0015716666666666667
sI178
F0.0015633333333333332
sI179
F0.0016416666666666667
sI180
F0.0016583333333333333
sI181
F0.0016133333333333334
sI182
F0.00156
sI183
F0.0016233333333333334
sI184
F0.0016533333333333333
sI185
F0.0014833333333333332
sI186
F0.00149
sI187
F0.0014266666666666666
sI188
F0.0016766666666666666
sI189
F0.0015616666666666667
sI190
F0.0016133333333333334
sI191
F0.0016299999999999999
sI192
F0.0016000000000000001
sI193
F0.0015483333333333334
sI194
F0.0017083333333333334
sI195
F0.0016916666666666666
sI196
F0.00165
sI197
F0.0014233333333333333
sI198
F0.0016033333333333333
sI199
F0.0016033333333333333
sI200
F0.0015783333333333333
sI201
F0.0015200000000000001
sI202
F0.00156
sI203
F0.0015816666666666668
sI204
F0.0015900000000000001
sI205
F0.00167
sI206
F0.0016900000000000001
sI207
F0.0015816666666666668
sI208
F0.0016383333333333334
sI209
F0.0015033333333333333
sI210
F0.00164
sI211
F0.0016616666666666668
sI212
F0.0015866666666666666
sI213
F0.0015766666666666668
sI214
F0.0016433333333333332
sI215
F0.001565
sI216
F0.0015966666666666666
sI217
F0.0016100000000000001
sI218
F0.0016466666666666667
sI219
F0.0014466666666666666
sI220
F0.0015299999999999999
sI221
F0.001585
sI222
F0.001585
sI223
F0.0015150000000000001
sI224
F0.0015266666666666666
sI225
F0.0015533333333333334
sI226
F0.001555
sI227
F0.0015516666666666667
sI228
F0.0015466666666666667
sI229
F0.0015266666666666666
sI230
F0.0016249999999999999
sI231
F0.0015416666666666667
sI232
F0.00164
sI233
F0.0015316666666666666
sI234
F0.0015216666666666666
sI235
F0.0016466666666666667
sI236
F0.0015616666666666667
sI237
F0.0015733333333333333
sI238
F0.0016216666666666667
sI239
F0.00164
sI240
F0.00157
sI241
F0.0015583333333333332
sI242
F0.0016733333333333333
sI243
F0.0014283333333333333
sI244
F0.0015733333333333333
sI245
F0.0015783333333333333
sI246
F0.0014916666666666667
sI247
F0.0015266666666666666
sI248
F0.0016533333333333333
sI249
F0.0016866666666666666
sI250
F0.0015366666666666666
sI251
F0.001635
sI252
F0.0015933333333333333
sI253
F0.0016666666666666668
sI254
F0.0015366666666666666
sI255
F0.0016566666666666667
sI256
F0.0015866666666666666
sI257
F0.0015666666666666667
sI258
F0.0013616666666666666
sI259
F0.0015900000000000001
sI260
F0.0016366666666666667
sI261
F0.0015416666666666667
sI262
F0.0014966666666666668
sI263
F0.0015333333333333334
sI264
F0.0015616666666666667
sI265
F0.001645
sI266
F0.0016083333333333334
sI267
F0.0016033333333333333
sI268
F0.0015566666666666667
sI269
F0.0015683333333333333
sI270
F0.0016299999999999999
sI271
F0.0015900000000000001
sI272
F0.0015883333333333333
sI273
F0.0015633333333333332
sI274
F0.0014300000000000001
sI275
F0.00157
sI276
F0.0016166666666666666
sI277
F0.0015816666666666668
sI278
F0.0015183333333333333
sI279
F0.0015583333333333332
sI280
F0.0016766666666666666
sI281
F0.0015366666666666666
sI282
F0.0016916666666666666
sI283
F0.0016750000000000001
sI284
F0.0016199999999999999
sI285
F0.001565
sI286
F0.00139
sI287
F0.0014933333333333333
sI288
F0.001585
sI289
F0.0015616666666666667
sI290
F0.0015166666666666666
sI291
F0.0015633333333333332
sI292
F0.0015533333333333334
sI293
F0.0016199999999999999
sI294
F0.0017233333333333332
sI295
F0.0015833333333333333
sI296
F0.0015483333333333334
sI297
F0.0015183333333333333
sI298
F0.0015716666666666667
sI299
F0.0015399999999999999
sI300
F0.0016533333333333333
sI301
F0.0015416666666666667
sI302
F0.0015966666666666666
sI303
F0.0015733333333333333
sI304
F0.0015833333333333333
sI305
F0.0016850000000000001
sI306
F0.001665
sI307
F0.0016066666666666666
sI308
F0.0015883333333333333
sI309
F0.001565
sI310
F0.0016100000000000001
sI311
F0.0015733333333333333
sI312
F0.0016149999999999999
sI313
F0.0015583333333333332
sI314
F0.0016183333333333334
sI315
F0.0016616666666666668
sI316
F0.0013883333333333334
sI317
F0.0015583333333333332
sI318
F0.00158
sI319
F0.0015683333333333333
sI320
F0.0015283333333333334
sI321
F0.0016433333333333332
sI322
F0.0015283333333333334
sI323
F0.0016116666666666666
sI324
F0.0015733333333333333
sI325
F0.0015783333333333333
sI326
F0.0016016666666666666
sI327
F0.0015966666666666666
sI328
F0.0015250000000000001
sI329
F0.0016316666666666667
sI330
F0.0015250000000000001
sI331
F0.0017033333333333334
sI332
F0.0015233333333333334
sI333
F0.0016933333333333334
sI334
F0.0016033333333333333
sI335
F0.0017166666666666667
sI336
F0.00166
sI337
F0.0014033333333333333
sI338
F0.0016199999999999999
sI339
F0.0014483333333333334
sI340
F0.0015866666666666666
sI341
F0.0015866666666666666
sI342
F0.0014033333333333333
sI343
F0.0015399999999999999
sI344
F0.0016733333333333333
sI345
F0.0015966666666666666
sI346
F0.0016933333333333334
sI347
F0.001725
sI348
F0.0015133333333333333
sI349
F0.001635
sI350
F0.0013466666666666666
sI351
F0.0016933333333333334
sI352
F0.0015
sI353
F0.0015466666666666667
sI354
F0.0015900000000000001
sI355
F0.0014983333333333333
sI356
F0.0016166666666666666
sI357
F0.0015583333333333332
sI358
F0.0014983333333333333
sI359
F0.0015950000000000001
sI360
F0.0016083333333333334
sI361
F0.0015766666666666668
sI362
F0.0016299999999999999
sI363
F0.0015516666666666667
sI364
F0.001565
sI365
F0.0015733333333333333
sI366
F0.0016366666666666667
sI367
F0.001555
sI368
F0.0015316666666666666
sI369
F0.0016766666666666666
sI370
F0.0016033333333333333
sI371
F0.0015033333333333333
sI372
F0.0014616666666666667
sI373
F0.001635
sI374
F0.0015533333333333334
sI375
F0.0016083333333333334
sI376
F0.0016516666666666667
sI377
F0.0015150000000000001
sI378
F0.0015683333333333333
sI379
F0.0015166666666666666
sI380
F0.0016866666666666666
sI381
F0.0015449999999999999
sI382
F0.001645
sI383
F0.0016416666666666667
sI384
F0.0016283333333333334
sI385
F0.001585
sI386
F0.0016083333333333334
sI387
F0.0015516666666666667
sI388
F0.00164
sI389
F0.0015733333333333333
sI390
F0.0016900000000000001
sI391
F0.0014733333333333334
sI392
F0.0015966666666666666
sI393
F0.0015866666666666666
sI394
F0.0016166666666666666
sI395
F0.0015833333333333333
sI396
F0.0015666666666666667
sI397
F0.001575
sI398
F0.0016233333333333334
sI399
F0.0015733333333333333
sI400
F0.0015950000000000001
sI401
F0.0015866666666666666
sI402
F0.0015716666666666667
sI403
F0.0015883333333333333
sI404
F0.0015516666666666667
sI405
F0.0015733333333333333
sI406
F0.0014883333333333333
sI407
F0.0015433333333333334
sI408
F0.0016183333333333334
sI409
F0.0015416666666666667
sI410
F0.0015916666666666666
sI411
F0.0016333333333333334
sI412
F0.0016416666666666667
sI413
F0.0015483333333333334
sI414
F0.0013333333333333333
sI415
F0.0016216666666666667
sI416
F0.0016133333333333334
sI417
F0.0016383333333333334
sI418
F0.0016466666666666667
sI419
F0.0013116666666666667
sI420
F0.00158
sI421
F0.0015116666666666666
sI422
F0.0015250000000000001
sI423
F0.00157
sI424
F0.0015399999999999999
sI425
F0.0016966666666666666
sI426
F0.0015516666666666667
sI427
F0.0015383333333333334
sI428
F0.0015533333333333334
sI429
F0.0015216666666666666
sI430
F0.0016233333333333334
sI431
F0.0015633333333333332
sI432
F0.0015216666666666666
sI433
F0.0015816666666666668
sI434
F0.0016483333333333332
sI435
F0.0016149999999999999
sI436
F0.001565
sI437
F0.0014716666666666667
sI438
F0.0015733333333333333
sI439
F0.0015633333333333332
sI440
F0.0015349999999999999
sI441
F0.0015950000000000001
sI442
F0.0015383333333333334
sI443
F0.0015449999999999999
sI444
F0.0015933333333333333
sI445
F0.00157
sI446
F0.0016183333333333334
sI447
F0.0015783333333333333
sI448
F0.0015783333333333333
sI449
F0.0014966666666666668
sI450
F0.001585
sI451
F0.0017016666666666666
sI452
F0.0014649999999999999
sI453
F0.0016233333333333334
sI454
F0.0016116666666666666
sI455
F0.0015633333333333332
sI456
F0.0015416666666666667
sI457
F0.0015533333333333334
sI458
F0.0016016666666666666
sI459
F0.0016149999999999999
sI460
F0.0015716666666666667
sI461
F0.0013866666666666667
sI462
F0.0015366666666666666
sI463
F0.0015983333333333333
sI464
F0.0015299999999999999
sI465
F0.0015250000000000001
sI466
F0.0016149999999999999
sI467
F0.0015983333333333333
sI468
F0.0014450000000000001
sI469
F0.0016233333333333334
sI470
F0.0014333333333333333
sI471
F0.0017166666666666667
sI472
F0.0014683333333333334
sI473
F0.0015233333333333334
sI474
F0.0016033333333333333
sI475
F0.0016583333333333333
sI476
F0.0015583333333333332
sI477
F0.0015916666666666666
sI478
F0.0016183333333333334
sI479
F0.0015950000000000001
sI480
F0.00166
ssg262
F0.50475333333333339
sstp269
a(g11
(tRp270
S'workload'
p271
g11
(tRp272
S'n_contents'
p273
I30000
sS'rank_per_group'
p274
F0.10000000000000001
sS'name'
p275
S'DIFFRANK'
p276
sS'n_warmup'
p277
I60000
sS'rate'
p278
F300
sS'n_measured'
p279
I600000
sS'alpha'
p280
F1
sS'n_rank'
p281
I32
ssS'cache_policy'
p282
g11
(tRp283
g275
S'LRU'
p284
ssS'strategy'
p285
g11
(tRp286
g275
S'NRR'
p287
ssS'content_placement'
p288
g11
(tRp289
g275
S'UNIFORM'
p290
ssS'cache_placement'
p291
g11
(tRp292
S'network_cache'
p293
F0.10000000000000001
sg275
g290
ssS'desc'
p294
S'Alpha: 1.0, strategy: NRR,  network cache: 0.1, topology: Datacenter,  num of datastore: 1, group size: 1. '
p295
sS'topology'
p296
g11
(tRp297
S'n_node'
p298
I320
sS'n_datastore'
p299
I1
sg275
S'DATACENTER'
p300
sS'n_member'
p301
I1
ssg11
(tRp302
S'LATENCY'
p303
g11
(tRp304
S'MEAN'
p305
F41.037953333333334
ssS'CACHE_HIT_RATIO'
p306
g11
(tRp307
S'PER_NODE_SERVER_HIT_RATIO'
p308
g11
(tRp309
I0
F0.55367833333333338
ssS'PER_NODE_CACHE_HIT_RATIO'
p310
g11
(tRp311
I512
F0.0013600000000000001
sI513
F0.0013866666666666667
sI514
F0.0013916666666666667
sI515
F0.0014416666666666666
sI516
F0.0014166666666666668
sI517
F0.0014183333333333333
sI518
F0.0013749999999999999
sI519
F0.0013683333333333334
sI520
F0.0013516666666666666
sI521
F0.001415
sI522
F0.0013183333333333332
sI523
F0.001335
sI524
F0.0013333333333333333
sI525
F0.0014
sI526
F0.0013766666666666667
sI527
F0.0013533333333333333
sI528
F0.00133
sI529
F0.0014250000000000001
sI530
F0.0013516666666666666
sI531
F0.0013966666666666667
sI532
F0.0013066666666666667
sI533
F0.0014133333333333333
sI534
F0.0014216666666666666
sI535
F0.0013666666666666666
sI536
F0.00131
sI537
F0.00139
sI538
F0.001415
sI539
F0.0013083333333333334
sI540
F0.0015016666666666668
sI541
F0.0013849999999999999
sI542
F0.0014016666666666667
sI543
F0.0014300000000000001
sI544
F0.001315
sI545
F0.0013583333333333334
sI546
F0.0014
sI547
F0.0013733333333333334
sI548
F0.0013483333333333333
sI549
F0.0013699999999999999
sI550
F0.0014316666666666666
sI551
F0.0012666666666666666
sI552
F0.00139
sI553
F0.0014416666666666666
sI554
F0.0013666666666666666
sI555
F0.0013550000000000001
sI556
F0.0014066666666666667
sI557
F0.0013366666666666666
sI558
F0.0013749999999999999
sI559
F0.00142
sI560
F0.0014033333333333333
sI561
F0.0013416666666666666
sI562
F0.001415
sI563
F0.0013450000000000001
sI564
F0.0014450000000000001
sI565
F0.0012849999999999999
sI566
F0.0014833333333333332
sI567
F0.0014383333333333333
sI568
F0.0014616666666666667
sI569
F0.001335
sI570
F0.0013983333333333332
sI571
F0.0013816666666666667
sI572
F0.0013666666666666666
sI573
F0.0013116666666666667
sI574
F0.0013466666666666666
sI575
F0.0014016666666666667
sI576
F0.001415
sI577
F0.0013816666666666667
sI578
F0.0013533333333333333
sI579
F0.0013649999999999999
sI580
F0.0013383333333333333
sI581
F0.0013083333333333334
sI582
F0.0014
sI583
F0.0014883333333333333
sI584
F0.00147
sI585
F0.001395
sI586
F0.0014366666666666666
sI587
F0.0013649999999999999
sI588
F0.0014016666666666667
sI589
F0.0013283333333333333
sI590
F0.0014633333333333334
sI591
F0.0014216666666666666
sI592
F0.0013433333333333333
sI593
F0.001415
sI594
F0.0013733333333333334
sI595
F0.0014033333333333333
sI596
F0.0013699999999999999
sI597
F0.0013616666666666666
sI598
F0.0013666666666666666
sI599
F0.001475
sI600
F0.0014183333333333333
sI601
F0.00134
sI602
F0.0013633333333333334
sI603
F0.0014083333333333333
sI604
F0.0013083333333333334
sI605
F0.0013883333333333334
sI606
F0.0014250000000000001
sI607
F0.0013466666666666666
sI608
F0.0013749999999999999
sI609
F0.001335
sI610
F0.0013749999999999999
sI611
F0.0013816666666666667
sI612
F0.0013933333333333332
sI613
F0.0013450000000000001
sI614
F0.0014083333333333333
sI615
F0.0013516666666666666
sI616
F0.0014466666666666666
sI617
F0.0014033333333333333
sI618
F0.0013416666666666666
sI619
F0.0014516666666666666
sI620
F0.0013016666666666667
sI621
F0.0013966666666666667
sI622
F0.0014766666666666667
sI623
F0.0013583333333333334
sI624
F0.0014033333333333333
sI625
F0.0014316666666666666
sI626
F0.0014633333333333334
sI627
F0.0013849999999999999
sI628
F0.0014083333333333333
sI629
F0.0014066666666666667
sI630
F0.0013566666666666666
sI631
F0.001415
sI632
F0.0013766666666666667
sI633
F0.0014300000000000001
sI634
F0.0014716666666666667
sI635
F0.0013633333333333334
sI636
F0.0014683333333333334
sI637
F0.001325
sI638
F0.0013966666666666667
sI639
F0.0013749999999999999
sI640
F0.0014816666666666667
sI321
F0.0013233333333333333
sI322
F0.0014566666666666667
sI323
F0.0013550000000000001
sI324
F0.0014683333333333334
sI325
F0.0014033333333333333
sI326
F0.0013583333333333334
sI327
F0.0014983333333333333
sI328
F0.0014499999999999999
sI329
F0.0013716666666666667
sI330
F0.0014400000000000001
sI331
F0.0014083333333333333
sI332
F0.0013500000000000001
sI333
F0.001405
sI334
F0.0014716666666666667
sI335
F0.0014366666666666666
sI336
F0.0013600000000000001
sI337
F0.0013849999999999999
sI338
F0.0014216666666666666
sI339
F0.0013683333333333334
sI340
F0.001405
sI341
F0.0013500000000000001
sI342
F0.0014283333333333333
sI343
F0.0013533333333333333
sI344
F0.001415
sI345
F0.0014333333333333333
sI346
F0.0013416666666666666
sI347
F0.0014183333333333333
sI348
F0.0013749999999999999
sI349
F0.0014516666666666666
sI350
F0.0014333333333333333
sI351
F0.0013633333333333334
sI352
F0.001395
sI353
F0.0013633333333333334
sI354
F0.0013333333333333333
sI355
F0.0013766666666666667
sI356
F0.0013166666666666667
sI357
F0.0013816666666666667
sI358
F0.0013666666666666666
sI359
F0.0014250000000000001
sI360
F0.0013849999999999999
sI361
F0.0013066666666666667
sI362
F0.0014433333333333334
sI363
F0.0014350000000000001
sI364
F0.001415
sI365
F0.0013483333333333333
sI366
F0.0014083333333333333
sI367
F0.0014549999999999999
sI368
F0.001405
sI369
F0.0014116666666666668
sI370
F0.0013799999999999999
sI371
F0.0014216666666666666
sI372
F0.0014866666666666667
sI373
F0.0013816666666666667
sI374
F0.0014233333333333333
sI375
F0.0013033333333333334
sI376
F0.0013933333333333332
sI377
F0.0014183333333333333
sI378
F0.0014033333333333333
sI379
F0.0013733333333333334
sI380
F0.0014016666666666667
sI381
F0.0014366666666666666
sI382
F0.0014649999999999999
sI383
F0.0013066666666666667
sI384
F0.0013683333333333334
sI385
F0.0014666666666666667
sI386
F0.0014316666666666666
sI387
F0.00149
sI388
F0.0014483333333333334
sI389
F0.0013383333333333333
sI390
F0.0012716666666666666
sI391
F0.001485
sI392
F0.0014283333333333333
sI393
F0.0014766666666666667
sI394
F0.0014183333333333333
sI395
F0.00142
sI396
F0.0013983333333333332
sI397
F0.0015816666666666668
sI398
F0.0014183333333333333
sI399
F0.0013966666666666667
sI400
F0.0013699999999999999
sI401
F0.0014233333333333333
sI402
F0.0014250000000000001
sI403
F0.0014816666666666667
sI404
F0.0013849999999999999
sI405
F0.0014599999999999999
sI406
F0.0014016666666666667
sI407
F0.0014333333333333333
sI408
F0.00123
sI409
F0.0013933333333333332
sI410
F0.0013600000000000001
sI411
F0.0014250000000000001
sI412
F0.001315
sI413
F0.0014033333333333333
sI414
F0.0014766666666666667
sI415
F0.0013583333333333334
sI416
F0.0014233333333333333
sI417
F0.0014083333333333333
sI418
F0.0014283333333333333
sI419
F0.0015233333333333334
sI420
F0.0013083333333333334
sI421
F0.0014566666666666667
sI422
F0.0013883333333333334
sI423
F0.0013616666666666666
sI424
F0.0014166666666666668
sI425
F0.0013883333333333334
sI426
F0.0014016666666666667
sI427
F0.0013683333333333334
sI428
F0.001495
sI429
F0.0013600000000000001
sI430
F0.0013450000000000001
sI431
F0.0014466666666666666
sI432
F0.0013883333333333334
sI433
F0.0013883333333333334
sI434
F0.0014450000000000001
sI435
F0.0014499999999999999
sI436
F0.0013333333333333333
sI437
F0.0014350000000000001
sI438
F0.0013916666666666667
sI439
F0.001405
sI440
F0.0014066666666666667
sI441
F0.0013416666666666666
sI442
F0.0014400000000000001
sI443
F0.0013183333333333332
sI444
F0.0014350000000000001
sI445
F0.0013883333333333334
sI446
F0.0013533333333333333
sI447
F0.0013333333333333333
sI448
F0.0014250000000000001
sI449
F0.001405
sI450
F0.0014483333333333334
sI451
F0.0014116666666666668
sI452
F0.0014066666666666667
sI453
F0.0014616666666666667
sI454
F0.0013816666666666667
sI455
F0.0014216666666666666
sI456
F0.0014316666666666666
sI457
F0.0013699999999999999
sI458
F0.0014883333333333333
sI459
F0.0013233333333333333
sI460
F0.0014366666666666666
sI461
F0.0014216666666666666
sI462
F0.0014333333333333333
sI463
F0.001405
sI464
F0.0014433333333333334
sI465
F0.00134
sI466
F0.0014333333333333333
sI467
F0.0014166666666666668
sI468
F0.0014549999999999999
sI469
F0.0013883333333333334
sI470
F0.0014533333333333334
sI471
F0.0013766666666666667
sI472
F0.0013766666666666667
sI473
F0.0014566666666666667
sI474
F0.0014166666666666668
sI475
F0.0013883333333333334
sI476
F0.0014116666666666668
sI477
F0.0013616666666666666
sI478
F0.0013483333333333333
sI479
F0.0013716666666666667
sI480
F0.0013683333333333334
sI481
F0.00142
sI482
F0.0014083333333333333
sI483
F0.0013749999999999999
sI484
F0.0013533333333333333
sI485
F0.0013616666666666666
sI486
F0.0014066666666666667
sI487
F0.001405
sI488
F0.0015233333333333334
sI489
F0.0013583333333333334
sI490
F0.0014716666666666667
sI491
F0.0013766666666666667
sI492
F0.0014316666666666666
sI493
F0.0013383333333333333
sI494
F0.0014133333333333333
sI495
F0.0013366666666666666
sI496
F0.0013883333333333334
sI497
F0.001405
sI498
F0.0013283333333333333
sI499
F0.0012899999999999999
sI500
F0.0013433333333333333
sI501
F0.0013133333333333332
sI502
F0.0014066666666666667
sI503
F0.0014033333333333333
sI504
F0.0013483333333333333
sI505
F0.0013849999999999999
sI506
F0.0013849999999999999
sI507
F0.0014233333333333333
sI508
F0.0014450000000000001
sI509
F0.0013766666666666667
sI510
F0.0013583333333333334
sI511
F0.001395
ssg305
F0.44632166666666667
sstp312
a(g11
(tRp313
S'workload'
p314
g11
(tRp315
S'n_contents'
p316
I30000
sS'rank_per_group'
p317
F0.10000000000000001
sS'name'
p318
S'DIFFRANK'
p319
sS'n_warmup'
p320
I60000
sS'rate'
p321
F300
sS'n_measured'
p322
I600000
sS'alpha'
p323
F1
sS'n_rank'
p324
I32
ssS'cache_policy'
p325
g11
(tRp326
g318
S'LRU'
p327
ssS'strategy'
p328
g11
(tRp329
g318
S'NRR'
p330
ssS'content_placement'
p331
g11
(tRp332
g318
S'UNIFORM'
p333
ssS'cache_placement'
p334
g11
(tRp335
S'network_cache'
p336
F0.10000000000000001
sg318
g333
ssS'desc'
p337
S'Alpha: 1.0, strategy: NRR,  network cache: 0.1, topology: Datacenter,  num of datastore: 1, group size: 1. '
p338
sS'topology'
p339
g11
(tRp340
S'n_node'
p341
I320
sS'n_datastore'
p342
I1
sg318
S'DATACENTER'
p343
sS'n_member'
p344
I1
ssg11
(tRp345
S'LATENCY'
p346
g11
(tRp347
S'MEAN'
p348
F41.33141333333333
ssS'CACHE_HIT_RATIO'
p349
g11
(tRp350
S'PER_NODE_SERVER_HIT_RATIO'
p351
g11
(tRp352
I0
F0.55436833333333335
ssS'PER_NODE_CACHE_HIT_RATIO'
p353
g11
(tRp354
I512
F0.0014250000000000001
sI513
F0.0014683333333333334
sI514
F0.0013749999999999999
sI515
F0.0014016666666666667
sI516
F0.0013749999999999999
sI517
F0.0014616666666666667
sI518
F0.0013966666666666667
sI519
F0.0013883333333333334
sI520
F0.0013550000000000001
sI521
F0.0013933333333333332
sI522
F0.001495
sI523
F0.0014566666666666667
sI524
F0.0014016666666666667
sI525
F0.0013483333333333333
sI526
F0.0013333333333333333
sI527
F0.0014533333333333334
sI528
F0.0013916666666666667
sI529
F0.0014250000000000001
sI530
F0.001335
sI531
F0.0013749999999999999
sI532
F0.0013533333333333333
sI533
F0.0013166666666666667
sI534
F0.0014450000000000001
sI535
F0.0013283333333333333
sI536
F0.00141
sI537
F0.0014033333333333333
sI538
F0.0013333333333333333
sI539
F0.0014300000000000001
sI540
F0.0014416666666666666
sI541
F0.0013066666666666667
sI542
F0.0014783333333333332
sI543
F0.00141
sI544
F0.0014300000000000001
sI545
F0.0014616666666666667
sI546
F0.0013566666666666666
sI547
F0.0014533333333333334
sI548
F0.0014033333333333333
sI549
F0.0014216666666666666
sI550
F0.0014233333333333333
sI551
F0.001405
sI552
F0.0014816666666666667
sI553
F0.00132
sI554
F0.0013566666666666666
sI555
F0.00133
sI556
F0.0013566666666666666
sI557
F0.0014366666666666666
sI558
F0.0013633333333333334
sI559
F0.0014066666666666667
sI560
F0.0013033333333333334
sI561
F0.0014833333333333332
sI562
F0.0013649999999999999
sI563
F0.0014366666666666666
sI564
F0.0013699999999999999
sI565
F0.0013633333333333334
sI566
F0.0014216666666666666
sI567
F0.0014183333333333333
sI568
F0.0013550000000000001
sI569
F0.0013416666666666666
sI570
F0.0013433333333333333
sI571
F0.0013933333333333332
sI572
F0.0013616666666666666
sI573
F0.0014016666666666667
sI574
F0.00134
sI575
F0.0013183333333333332
sI576
F0.0014316666666666666
sI577
F0.0014133333333333333
sI578
F0.00133
sI579
F0.0014233333333333333
sI580
F0.0013516666666666666
sI581
F0.0012516666666666668
sI582
F0.0013799999999999999
sI583
F0.0013616666666666666
sI584
F0.001475
sI585
F0.0013683333333333334
sI586
F0.001335
sI587
F0.0013600000000000001
sI588
F0.0013816666666666667
sI589
F0.0013983333333333332
sI590
F0.0013666666666666666
sI591
F0.0013500000000000001
sI592
F0.0013649999999999999
sI593
F0.00148
sI594
F0.0014266666666666666
sI595
F0.0013616666666666666
sI596
F0.0014183333333333333
sI597
F0.0013816666666666667
sI598
F0.001415
sI599
F0.0014400000000000001
sI600
F0.0014766666666666667
sI601
F0.0014366666666666666
sI602
F0.0013749999999999999
sI603
F0.0013033333333333334
sI604
F0.0014683333333333334
sI605
F0.0013716666666666667
sI606
F0.0013799999999999999
sI607
F0.001415
sI608
F0.0014016666666666667
sI609
F0.0014666666666666667
sI610
F0.0013983333333333332
sI611
F0.0013383333333333333
sI612
F0.0013749999999999999
sI613
F0.0013133333333333332
sI614
F0.00139
sI615
F0.001395
sI616
F0.0014616666666666667
sI617
F0.0013699999999999999
sI618
F0.0014216666666666666
sI619
F0.0013749999999999999
sI620
F0.001305
sI621
F0.0014116666666666668
sI622
F0.0014383333333333333
sI623
F0.0014450000000000001
sI624
F0.0014666666666666667
sI625
F0.0013716666666666667
sI626
F0.0014300000000000001
sI627
F0.0013283333333333333
sI628
F0.0012933333333333334
sI629
F0.0014499999999999999
sI630
F0.0013966666666666667
sI631
F0.0014366666666666666
sI632
F0.0013883333333333334
sI633
F0.0014083333333333333
sI634
F0.0014400000000000001
sI635
F0.00132
sI636
F0.0014516666666666666
sI637
F0.0014083333333333333
sI638
F0.0014033333333333333
sI639
F0.0013133333333333332
sI640
F0.0014350000000000001
sI321
F0.0013699999999999999
sI322
F0.0013916666666666667
sI323
F0.001415
sI324
F0.00141
sI325
F0.0013833333333333334
sI326
F0.0015016666666666668
sI327
F0.0014783333333333332
sI328
F0.0013216666666666667
sI329
F0.0014083333333333333
sI330
F0.0013749999999999999
sI331
F0.001395
sI332
F0.00141
sI333
F0.00142
sI334
F0.0013699999999999999
sI335
F0.0013433333333333333
sI336
F0.0013416666666666666
sI337
F0.0012716666666666666
sI338
F0.0012916666666666667
sI339
F0.001395
sI340
F0.001305
sI341
F0.0013716666666666667
sI342
F0.0012800000000000001
sI343
F0.00142
sI344
F0.0013966666666666667
sI345
F0.0014350000000000001
sI346
F0.0012849999999999999
sI347
F0.0014499999999999999
sI348
F0.0013916666666666667
sI349
F0.0014333333333333333
sI350
F0.0013166666666666667
sI351
F0.0013866666666666667
sI352
F0.0014366666666666666
sI353
F0.0013966666666666667
sI354
F0.0014400000000000001
sI355
F0.0015216666666666666
sI356
F0.0014400000000000001
sI357
F0.0014216666666666666
sI358
F0.0013366666666666666
sI359
F0.0014233333333333333
sI360
F0.0013583333333333334
sI361
F0.0015066666666666666
sI362
F0.0014166666666666668
sI363
F0.0013183333333333332
sI364
F0.0013450000000000001
sI365
F0.0013166666666666667
sI366
F0.0013766666666666667
sI367
F0.0012899999999999999
sI368
F0.0014
sI369
F0.0014549999999999999
sI370
F0.0013666666666666666
sI371
F0.001395
sI372
F0.0012683333333333333
sI373
F0.0013766666666666667
sI374
F0.001415
sI375
F0.0013749999999999999
sI376
F0.0014233333333333333
sI377
F0.0014233333333333333
sI378
F0.0013833333333333334
sI379
F0.0013916666666666667
sI380
F0.0013616666666666666
sI381
F0.0014083333333333333
sI382
F0.0013550000000000001
sI383
F0.0013533333333333333
sI384
F0.001335
sI385
F0.0013916666666666667
sI386
F0.0013916666666666667
sI387
F0.0013866666666666667
sI388
F0.0014549999999999999
sI389
F0.0013666666666666666
sI390
F0.0013116666666666667
sI391
F0.0013766666666666667
sI392
F0.0013649999999999999
sI393
F0.0014
sI394
F0.0013633333333333334
sI395
F0.0013833333333333334
sI396
F0.0014466666666666666
sI397
F0.0013666666666666666
sI398
F0.0013233333333333333
sI399
F0.0014933333333333333
sI400
F0.00134
sI401
F0.0014266666666666666
sI402
F0.0014383333333333333
sI403
F0.0013016666666666667
sI404
F0.0014166666666666668
sI405
F0.0013633333333333334
sI406
F0.0013883333333333334
sI407
F0.0014183333333333333
sI408
F0.0014066666666666667
sI409
F0.0014499999999999999
sI410
F0.0013766666666666667
sI411
F0.0013816666666666667
sI412
F0.0013983333333333332
sI413
F0.0015133333333333333
sI414
F0.001395
sI415
F0.0013550000000000001
sI416
F0.0014499999999999999
sI417
F0.00132
sI418
F0.0014066666666666667
sI419
F0.0014499999999999999
sI420
F0.0013600000000000001
sI421
F0.0014350000000000001
sI422
F0.001405
sI423
F0.0013633333333333334
sI424
F0.0013466666666666666
sI425
F0.0014450000000000001
sI426
F0.0013616666666666666
sI427
F0.0013883333333333334
sI428
F0.001325
sI429
F0.0014516666666666666
sI430
F0.0014716666666666667
sI431
F0.0014466666666666666
sI432
F0.0014733333333333334
sI433
F0.0013783333333333334
sI434
F0.0014549999999999999
sI435
F0.00139
sI436
F0.00148
sI437
F0.0014450000000000001
sI438
F0.0013716666666666667
sI439
F0.0013450000000000001
sI440
F0.00142
sI441
F0.0014599999999999999
sI442
F0.0013233333333333333
sI443
F0.0013666666666666666
sI444
F0.0013833333333333334
sI445
F0.0014300000000000001
sI446
F0.0014250000000000001
sI447
F0.0014450000000000001
sI448
F0.0014783333333333332
sI449
F0.0013083333333333334
sI450
F0.0014216666666666666
sI451
F0.0013683333333333334
sI452
F0.0013749999999999999
sI453
F0.001415
sI454
F0.0013883333333333334
sI455
F0.0013799999999999999
sI456
F0.0013666666666666666
sI457
F0.0014283333333333333
sI458
F0.0014133333333333333
sI459
F0.0014066666666666667
sI460
F0.0014016666666666667
sI461
F0.0014499999999999999
sI462
F0.0015
sI463
F0.0013483333333333333
sI464
F0.0013666666666666666
sI465
F0.0013316666666666668
sI466
F0.001395
sI467
F0.0014666666666666667
sI468
F0.0014599999999999999
sI469
F0.0015150000000000001
sI470
F0.0014450000000000001
sI471
F0.0013783333333333334
sI472
F0.0013333333333333333
sI473
F0.0013450000000000001
sI474
F0.0014383333333333333
sI475
F0.0014466666666666666
sI476
F0.0014350000000000001
sI477
F0.0013566666666666666
sI478
F0.0013816666666666667
sI479
F0.0014499999999999999
sI480
F0.0014033333333333333
sI481
F0.00134
sI482
F0.0013716666666666667
sI483
F0.0014383333333333333
sI484
F0.0013683333333333334
sI485
F0.0013566666666666666
sI486
F0.001415
sI487
F0.0013633333333333334
sI488
F0.0013433333333333333
sI489
F0.0015283333333333334
sI490
F0.00134
sI491
F0.0013450000000000001
sI492
F0.0014066666666666667
sI493
F0.0014383333333333333
sI494
F0.0013283333333333333
sI495
F0.0013433333333333333
sI496
F0.0014
sI497
F0.0012650000000000001
sI498
F0.0013516666666666666
sI499
F0.0013500000000000001
sI500
F0.0013466666666666666
sI501
F0.0013699999999999999
sI502
F0.0013783333333333334
sI503
F0.001335
sI504
F0.0013666666666666666
sI505
F0.0014666666666666667
sI506
F0.0013666666666666666
sI507
F0.00142
sI508
F0.0013866666666666667
sI509
F0.0013616666666666666
sI510
F0.0013749999999999999
sI511
F0.0014833333333333332
ssg348
F0.44563166666666665
sstp355
a(g11
(tRp356
S'workload'
p357
g11
(tRp358
S'n_contents'
p359
I30000
sS'rank_per_group'
p360
F2
sS'name'
p361
S'DIFFRANK'
p362
sS'n_warmup'
p363
I60000
sS'rate'
p364
F300
sS'n_measured'
p365
I600000
sS'alpha'
p366
F1
sS'n_rank'
p367
I32
ssS'cache_policy'
p368
g11
(tRp369
g361
S'LRU'
p370
ssS'strategy'
p371
g11
(tRp372
g361
S'NRR'
p373
ssS'content_placement'
p374
g11
(tRp375
g361
S'UNIFORM'
p376
ssS'cache_placement'
p377
g11
(tRp378
S'network_cache'
p379
F0.10000000000000001
sg361
g376
ssS'desc'
p380
S'Alpha: 1.0, strategy: NRR,  network cache: 0.1, topology: Datacenter,  num of datastore: 1, group size: 20. '
p381
sS'topology'
p382
g11
(tRp383
S'n_node'
p384
I320
sS'n_datastore'
p385
I1
sg361
S'DATACENTER'
p386
sS'n_member'
p387
I20
ssg11
(tRp388
S'LATENCY'
p389
g11
(tRp390
S'MEAN'
p391
F32.69786666666667
ssS'CACHE_HIT_RATIO'
p392
g11
(tRp393
S'PER_NODE_SERVER_HIT_RATIO'
p394
g11
(tRp395
I0
F0.35906333333333335
ssS'PER_NODE_CACHE_HIT_RATIO'
p396
g11
(tRp397
I17
F0.0025049999999999998
sI18
F0.0019
sI19
F0.0017083333333333334
sI20
F0.0014033333333333333
sI21
F0.001655
sI22
F0.0016100000000000001
sI23
F0.00133
sI24
F0.0025516666666666665
sI25
F0.00233
sI26
F0.0019083333333333333
sI27
F0.00192
sI28
F0.0017166666666666667
sI29
F0.0016766666666666666
sI30
F0.0016616666666666668
sI31
F0.0015783333333333333
sI32
F0.0027550000000000001
sI33
F0.0037466666666666668
sI34
F0.0018616666666666666
sI35
F0.0024616666666666667
sI36
F0.00183
sI37
F0.0014450000000000001
sI38
F0.0030616666666666665
sI39
F0.0019650000000000002
sI40
F0.0032200000000000002
sI41
F0.0022666666666666668
sI42
F0.0023183333333333333
sI43
F0.0021016666666666666
sI44
F0.0017750000000000001
sI45
F0.0017016666666666666
sI46
F0.00172
sI47
F0.0017366666666666667
sI48
F0.0024250000000000001
sI49
F0.0014483333333333334
sI50
F0.0019849999999999998
sI51
F0.00192
sI52
F0.0019033333333333333
sI53
F0.0013616666666666666
sI54
F0.0017716666666666666
sI55
F0.0017149999999999999
sI56
F0.0022866666666666669
sI57
F0.0014066666666666667
sI58
F0.0021350000000000002
sI59
F0.0016183333333333334
sI60
F0.0016016666666666666
sI61
F0.0013316666666666668
sI62
F0.0016149999999999999
sI63
F0.0017016666666666666
sI64
F0.0037233333333333333
sI65
F0.0033966666666666668
sI66
F0.002225
sI67
F0.0020349999999999999
sI68
F0.0017750000000000001
sI69
F0.0014283333333333333
sI70
F0.0017583333333333333
sI71
F0.0017216666666666667
sI72
F0.0026183333333333332
sI73
F0.0018966666666666667
sI74
F0.00198
sI75
F0.0018916666666666667
sI76
F0.0019300000000000001
sI77
F0.0021166666666666669
sI78
F0.0026566666666666666
sI79
F0.0018600000000000001
sI80
F0.0013866666666666667
sI81
F0.0021350000000000002
sI82
F0.0013816666666666667
sI83
F0.0013849999999999999
sI84
F0.0020183333333333334
sI85
F0.0017666666666666666
sI86
F0.0017600000000000001
sI87
F0.0016383333333333334
sI88
F0.0024983333333333333
sI89
F0.0025383333333333334
sI90
F0.0020566666666666667
sI91
F0.0020433333333333332
sI92
F0.0020416666666666665
sI93
F0.001755
sI94
F0.0017583333333333333
sI95
F0.00173
sI96
F0.0037266666666666668
sI97
F0.0041016666666666667
sI98
F0.0027850000000000001
sI99
F0.0023066666666666665
sI100
F0.0019366666666666666
sI101
F0.0018799999999999999
sI102
F0.0016683333333333333
sI103
F0.0016249999999999999
sI104
F0.0012983333333333334
sI105
F0.0023966666666666667
sI106
F0.0014
sI107
F0.0017533333333333333
sI108
F0.00192
sI109
F0.00183
sI110
F0.0017366666666666667
sI111
F0.0017833333333333334
sI112
F0.0024866666666666665
sI113
F0.0013366666666666666
sI114
F0.0019616666666666667
sI115
F0.0020466666666666667
sI116
F0.0016016666666666666
sI117
F0.0017566666666666666
sI118
F0.0017383333333333333
sI119
F0.0017049999999999999
sI120
F0.0026016666666666666
sI121
F0.0021466666666666665
sI122
F0.0022433333333333333
sI123
F0.0018016666666666667
sI124
F0.0017799999999999999
sI125
F0.0017466666666666668
sI126
F0.0015566666666666667
sI127
F0.0017166666666666667
sI128
F0.0032466666666666668
sI129
F0.0033800000000000002
sI130
F0.0020883333333333335
sI131
F0.0018816666666666667
sI132
F0.0014066666666666667
sI133
F0.0014116666666666668
sI134
F0.0017849999999999999
sI135
F0.0019766666666666665
sI136
F0.0023566666666666666
sI137
F0.0034183333333333331
sI138
F0.0030666666666666668
sI139
F0.0019116666666666668
sI140
F0.0019300000000000001
sI141
F0.0013883333333333334
sI142
F0.0016783333333333333
sI143
F0.0016766666666666666
sI144
F0.00249
sI145
F0.0025100000000000001
sI146
F0.0019499999999999999
sI147
F0.0017849999999999999
sI148
F0.001665
sI149
F0.0017916666666666667
sI150
F0.0014666666666666667
sI151
F0.001735
sI152
F0.0023316666666666668
sI153
F0.002055
sI154
F0.0018649999999999999
sI155
F0.0016716666666666666
sI156
F0.0014433333333333334
sI157
F0.0020466666666666667
sI158
F0.0019949999999999998
sI159
F0.001635
sI160
F0.0032450000000000001
sI161
F0.0012933333333333334
sI162
F0.0022466666666666668
sI163
F0.0018166666666666667
sI164
F0.0014816666666666667
sI165
F0.0035999999999999999
sI166
F0.0014666666666666667
sI167
F0.0020916666666666666
sI168
F0.0013333333333333333
sI169
F0.0026516666666666668
sI170
F0.0019949999999999998
sI171
F0.0013333333333333333
sI172
F0.00183
sI173
F0.0013566666666666666
sI174
F0.0014116666666666668
sI175
F0.0020083333333333333
sI176
F0.0021233333333333334
sI177
F0.0020733333333333333
sI178
F0.0022599999999999999
sI179
F0.0019550000000000001
sI180
F0.0018633333333333334
sI181
F0.0017483333333333333
sI182
F0.0016933333333333334
sI183
F0.0017416666666666668
sI184
F0.0023433333333333331
sI185
F0.0022000000000000001
sI186
F0.0020583333333333335
sI187
F0.0017799999999999999
sI188
F0.001815
sI189
F0.0017183333333333334
sI190
F0.0017883333333333334
sI191
F0.0016083333333333334
sI192
F0.0038999999999999998
sI193
F0.0013933333333333332
sI194
F0.0027699999999999999
sI195
F0.0012933333333333334
sI196
F0.0019616666666666667
sI197
F0.00149
sI198
F0.002875
sI199
F0.0026533333333333335
sI200
F0.0026416666666666667
sI201
F0.0024433333333333334
sI202
F0.0020100000000000001
sI203
F0.0020133333333333331
sI204
F0.0018116666666666667
sI205
F0.0017416666666666668
sI206
F0.0017966666666666667
sI207
F0.0016149999999999999
sI208
F0.00263
sI209
F0.002085
sI210
F0.0019633333333333334
sI211
F0.0017966666666666667
sI212
F0.00181
sI213
F0.0017683333333333333
sI214
F0.0016800000000000001
sI215
F0.0016733333333333333
sI216
F0.0021716666666666668
sI217
F0.0022016666666666669
sI218
F0.0019616666666666667
sI219
F0.0021516666666666667
sI220
F0.0018383333333333333
sI221
F0.0017016666666666666
sI222
F0.0016883333333333334
sI223
F0.0015616666666666667
sI224
F0.0013533333333333333
sI225
F0.0030850000000000001
sI226
F0.0032983333333333332
sI227
F0.0019266666666666666
sI228
F0.0018283333333333333
sI229
F0.0016566666666666667
sI230
F0.0016149999999999999
sI231
F0.0019516666666666667
sI232
F0.0024299999999999999
sI233
F0.0025233333333333332
sI234
F0.001895
sI235
F0.0018516666666666666
sI236
F0.0014216666666666666
sI237
F0.0026099999999999999
sI238
F0.0030866666666666668
sI239
F0.0018233333333333333
sI240
F0.0013966666666666667
sI241
F0.0024849999999999998
sI242
F0.00198
sI243
F0.0014016666666666667
sI244
F0.0023366666666666666
sI245
F0.0014066666666666667
sI246
F0.0020349999999999999
sI247
F0.0018316666666666668
sI248
F0.0027316666666666665
sI249
F0.002065
sI250
F0.0019933333333333335
sI251
F0.0017133333333333334
sI252
F0.0022066666666666667
sI253
F0.0019633333333333334
sI254
F0.0014183333333333333
sI255
F0.001755
sI256
F0.0014599999999999999
sI257
F0.0036333333333333335
sI258
F0.0026166666666666669
sI259
F0.0020366666666666667
sI260
F0.0019866666666666665
sI261
F0.0017899999999999999
sI262
F0.0014116666666666668
sI263
F0.0013816666666666667
sI264
F0.0026050000000000001
sI265
F0.0020449999999999999
sI266
F0.0020449999999999999
sI267
F0.0017566666666666666
sI268
F0.0017583333333333333
sI269
F0.0016583333333333333
sI270
F0.0015483333333333334
sI271
F0.0015900000000000001
sI272
F0.0023999999999999998
sI273
F0.0019383333333333334
sI274
F0.00182
sI275
F0.0018883333333333332
sI276
F0.001805
sI277
F0.0018116666666666667
sI278
F0.0013799999999999999
sI279
F0.0015516666666666667
sI280
F0.0024733333333333335
sI281
F0.0020149999999999999
sI282
F0.0019516666666666667
sI283
F0.0017033333333333334
sI284
F0.0018649999999999999
sI285
F0.0017916666666666667
sI286
F0.00174
sI287
F0.0015533333333333334
sI288
F0.0030416666666666665
sI289
F0.0038216666666666668
sI290
F0.0018649999999999999
sI291
F0.0013749999999999999
sI292
F0.0023666666666666667
sI293
F0.0016683333333333333
sI294
F0.0017466666666666668
sI295
F0.00183
sI296
F0.0023
sI297
F0.005273333333333333
sI298
F0.0026849999999999999
sI299
F0.0020500000000000002
sI300
F0.0019683333333333332
sI301
F0.0015933333333333333
sI302
F0.0016383333333333334
sI303
F0.001745
sI304
F0.0027283333333333335
sI305
F0.0020500000000000002
sI306
F0.0018416666666666666
sI307
F0.0019266666666666666
sI308
F0.001405
sI309
F0.0016949999999999999
sI310
F0.0016249999999999999
sI311
F0.0013699999999999999
sI312
F0.0023249999999999998
sI313
F0.0020466666666666667
sI314
F0.0017533333333333333
sI315
F0.00172
sI316
F0.0020300000000000001
sI317
F0.0017516666666666666
sI318
F0.0016900000000000001
sI319
F0.0016333333333333334
sI320
F0.0031199999999999999
sI321
F0.0020100000000000001
sI322
F0.0038766666666666667
sI323
F0.0024750000000000002
sI324
F0.0013266666666666667
sI325
F0.0019400000000000001
sI326
F0.0017183333333333334
sI327
F0.0016966666666666666
sI328
F0.0020816666666666666
sI329
F0.0013799999999999999
sI330
F0.0018683333333333334
sI331
F0.0022033333333333332
sI332
F0.0019883333333333333
sI333
F0.0017616666666666666
sI334
F0.0018400000000000001
sI335
F0.0013516666666666666
sI336
F0.0026549999999999998
ssg391
F0.64093666666666671
sstp398
a(g11
(tRp399
S'workload'
p400
g11
(tRp401
S'n_contents'
p402
I30000
sS'rank_per_group'
p403
F2
sS'name'
p404
S'DIFFRANK'
p405
sS'n_warmup'
p406
I60000
sS'rate'
p407
F300
sS'n_measured'
p408
I600000
sS'alpha'
p409
F1
sS'n_rank'
p410
I32
ssS'cache_policy'
p411
g11
(tRp412
g404
S'LRU'
p413
ssS'strategy'
p414
g11
(tRp415
g404
S'NRR'
p416
ssS'content_placement'
p417
g11
(tRp418
g404
S'UNIFORM'
p419
ssS'cache_placement'
p420
g11
(tRp421
S'network_cache'
p422
F0.10000000000000001
sg404
g419
ssS'desc'
p423
S'Alpha: 1.0, strategy: NRR,  network cache: 0.1, topology: Datacenter,  num of datastore: 1, group size: 20. '
p424
sS'topology'
p425
g11
(tRp426
S'n_node'
p427
I320
sS'n_datastore'
p428
I1
sg404
S'DATACENTER'
p429
sS'n_member'
p430
I20
ssg11
(tRp431
S'LATENCY'
p432
g11
(tRp433
S'MEAN'
p434
F31.403293333333334
ssS'CACHE_HIT_RATIO'
p435
g11
(tRp436
S'PER_NODE_SERVER_HIT_RATIO'
p437
g11
(tRp438
I0
F0.35697833333333334
ssS'PER_NODE_CACHE_HIT_RATIO'
p439
g11
(tRp440
I17
F0.0026483333333333333
sI18
F0.0020933333333333333
sI19
F0.0018500000000000001
sI20
F0.0017116666666666667
sI21
F0.0016149999999999999
sI22
F0.001645
sI23
F0.0016149999999999999
sI24
F0.0023083333333333332
sI25
F0.0022816666666666667
sI26
F0.0019599999999999999
sI27
F0.0018733333333333334
sI28
F0.0016783333333333333
sI29
F0.001725
sI30
F0.0015900000000000001
sI31
F0.0016116666666666666
sI32
F0.0019650000000000002
sI33
F0.0048766666666666663
sI34
F0.0026116666666666667
sI35
F0.0016816666666666666
sI36
F0.0020816666666666666
sI37
F0.0027883333333333332
sI38
F0.0028050000000000002
sI39
F0.0019516666666666667
sI40
F0.0025699999999999998
sI41
F0.0027666666666666668
sI42
F0.001325
sI43
F0.0018483333333333333
sI44
F0.0019683333333333332
sI45
F0.0016766666666666666
sI46
F0.0017566666666666666
sI47
F0.0013799999999999999
sI48
F0.0022766666666666669
sI49
F0.0019733333333333334
sI50
F0.0014466666666666666
sI51
F0.0021466666666666665
sI52
F0.0020833333333333333
sI53
F0.0017083333333333334
sI54
F0.0016299999999999999
sI55
F0.0015633333333333332
sI56
F0.0021033333333333334
sI57
F0.0019783333333333332
sI58
F0.0019416666666666666
sI59
F0.0016633333333333333
sI60
F0.0016199999999999999
sI61
F0.0013649999999999999
sI62
F0.0015933333333333333
sI63
F0.0016166666666666666
sI64
F0.0031266666666666665
sI65
F0.003933333333333333
sI66
F0.0023449999999999999
sI67
F0.0020200000000000001
sI68
F0.0017949999999999999
sI69
F0.0017899999999999999
sI70
F0.00164
sI71
F0.0016216666666666667
sI72
F0.0025366666666666667
sI73
F0.0021749999999999999
sI74
F0.0018416666666666666
sI75
F0.001825
sI76
F0.0019416666666666666
sI77
F0.0029833333333333335
sI78
F0.0027416666666666666
sI79
F0.00182
sI80
F0.0028616666666666669
sI81
F0.0020666666666666667
sI82
F0.0022366666666666668
sI83
F0.001895
sI84
F0.001895
sI85
F0.0016916666666666666
sI86
F0.0016266666666666667
sI87
F0.0015933333333333333
sI88
F0.0021116666666666666
sI89
F0.0025066666666666666
sI90
F0.0018466666666666666
sI91
F0.002075
sI92
F0.0016733333333333333
sI93
F0.0017750000000000001
sI94
F0.0015866666666666666
sI95
F0.0013633333333333334
sI96
F0.0013583333333333334
sI97
F0.00142
sI98
F0.0013633333333333334
sI99
F0.0026549999999999998
sI100
F0.0032633333333333334
sI101
F0.0019250000000000001
sI102
F0.00175
sI103
F0.0019766666666666665
sI104
F0.0025266666666666666
sI105
F0.0023383333333333333
sI106
F0.0021783333333333333
sI107
F0.0020300000000000001
sI108
F0.0018333333333333333
sI109
F0.00175
sI110
F0.001725
sI111
F0.0016333333333333334
sI112
F0.0022383333333333335
sI113
F0.0014433333333333334
sI114
F0.0019849999999999998
sI115
F0.0021566666666666665
sI116
F0.0018966666666666667
sI117
F0.0017833333333333334
sI118
F0.0018600000000000001
sI119
F0.0017433333333333333
sI120
F0.0025566666666666667
sI121
F0.0022950000000000002
sI122
F0.0019966666666666666
sI123
F0.0018266666666666668
sI124
F0.00189
sI125
F0.0018749999999999999
sI126
F0.0016116666666666666
sI127
F0.0015633333333333332
sI128
F0.0028700000000000002
sI129
F0.0013749999999999999
sI130
F0.004235
sI131
F0.0017600000000000001
sI132
F0.0013683333333333334
sI133
F0.0023966666666666667
sI134
F0.00166
sI135
F0.0018116666666666667
sI136
F0.0013983333333333332
sI137
F0.0040699999999999998
sI138
F0.0028149999999999998
sI139
F0.001415
sI140
F0.0021616666666666668
sI141
F0.00183
sI142
F0.0016683333333333333
sI143
F0.001335
sI144
F0.0025616666666666665
sI145
F0.0014433333333333334
sI146
F0.0019350000000000001
sI147
F0.0017966666666666667
sI148
F0.001885
sI149
F0.0017033333333333334
sI150
F0.0016949999999999999
sI151
F0.0017416666666666668
sI152
F0.0025249999999999999
sI153
F0.0014383333333333333
sI154
F0.0019066666666666668
sI155
F0.0016533333333333333
sI156
F0.0022750000000000001
sI157
F0.0017833333333333334
sI158
F0.0016933333333333334
sI159
F0.0016999999999999999
sI160
F0.0036666666666666666
sI161
F0.0013166666666666667
sI162
F0.0021383333333333332
sI163
F0.001735
sI164
F0.0030766666666666668
sI165
F0.0019916666666666668
sI166
F0.0015833333333333333
sI167
F0.0016266666666666667
sI168
F0.0025799999999999998
sI169
F0.0019916666666666668
sI170
F0.00197
sI171
F0.0022899999999999999
sI172
F0.0020100000000000001
sI173
F0.0016916666666666666
sI174
F0.0016333333333333334
sI175
F0.0016416666666666667
sI176
F0.0021866666666666666
sI177
F0.0023349999999999998
sI178
F0.002235
sI179
F0.001415
sI180
F0.0017650000000000001
sI181
F0.0017083333333333334
sI182
F0.0016850000000000001
sI183
F0.0016050000000000001
sI184
F0.0014083333333333333
sI185
F0.0024233333333333333
sI186
F0.0020049999999999998
sI187
F0.0018799999999999999
sI188
F0.0014883333333333333
sI189
F0.0017266666666666667
sI190
F0.0017216666666666667
sI191
F0.0016683333333333333
sI192
F0.0042533333333333329
sI193
F0.00139
sI194
F0.002225
sI195
F0.0025799999999999998
sI196
F0.0019849999999999998
sI197
F0.0029316666666666666
sI198
F0.0027233333333333332
sI199
F0.0019283333333333333
sI200
F0.0026683333333333333
sI201
F0.0021649999999999998
sI202
F0.0019083333333333333
sI203
F0.0019083333333333333
sI204
F0.0016983333333333334
sI205
F0.0014066666666666667
sI206
F0.0018133333333333332
sI207
F0.0018116666666666667
sI208
F0.0024266666666666668
sI209
F0.0021766666666666666
sI210
F0.0019499999999999999
sI211
F0.0019716666666666667
sI212
F0.001635
sI213
F0.0016000000000000001
sI214
F0.0017716666666666666
sI215
F0.0016333333333333334
sI216
F0.0022016666666666669
sI217
F0.0013500000000000001
sI218
F0.0019533333333333334
sI219
F0.0019650000000000002
sI220
F0.0014183333333333333
sI221
F0.0014400000000000001
sI222
F0.0017333333333333333
sI223
F0.0017949999999999999
sI224
F0.0028
sI225
F0.0041000000000000003
sI226
F0.0020333333333333332
sI227
F0.0022599999999999999
sI228
F0.0013699999999999999
sI229
F0.0020683333333333335
sI230
F0.0018533333333333334
sI231
F0.0017633333333333333
sI232
F0.002545
sI233
F0.0021583333333333333
sI234
F0.0014266666666666666
sI235
F0.0017033333333333334
sI236
F0.0017033333333333334
sI237
F0.0028483333333333334
sI238
F0.0019066666666666668
sI239
F0.0018133333333333332
sI240
F0.0025600000000000002
sI241
F0.0022799999999999999
sI242
F0.0019650000000000002
sI243
F0.0019366666666666666
sI244
F0.0016833333333333333
sI245
F0.0018833333333333334
sI246
F0.0017033333333333334
sI247
F0.0015566666666666667
sI248
F0.0025083333333333333
sI249
F0.0019516666666666667
sI250
F0.0020483333333333334
sI251
F0.0017700000000000001
sI252
F0.0019333333333333333
sI253
F0.0017116666666666667
sI254
F0.0014066666666666667
sI255
F0.0015900000000000001
sI256
F0.0031949999999999999
sI257
F0.0043466666666666671
sI258
F0.0024366666666666668
sI259
F0.0012916666666666667
sI260
F0.0020216666666666668
sI261
F0.0018066666666666667
sI262
F0.0016366666666666667
sI263
F0.0013749999999999999
sI264
F0.0026116666666666667
sI265
F0.0020333333333333332
sI266
F0.00181
sI267
F0.0018333333333333333
sI268
F0.0020133333333333331
sI269
F0.0017899999999999999
sI270
F0.0016166666666666666
sI271
F0.0016283333333333334
sI272
F0.0024533333333333334
sI273
F0.0022750000000000001
sI274
F0.0013649999999999999
sI275
F0.0020600000000000002
sI276
F0.0017899999999999999
sI277
F0.0017133333333333334
sI278
F0.0016683333333333333
sI279
F0.0014300000000000001
sI280
F0.0023833333333333332
sI281
F0.0022316666666666665
sI282
F0.0020266666666666666
sI283
F0.0018066666666666667
sI284
F0.0018016666666666667
sI285
F0.0017750000000000001
sI286
F0.0016733333333333333
sI287
F0.0016233333333333334
sI288
F0.0048266666666666666
sI289
F0.0025249999999999999
sI290
F0.0021983333333333334
sI291
F0.0019683333333333332
sI292
F0.0020516666666666665
sI293
F0.0018533333333333334
sI294
F0.0017066666666666667
sI295
F0.0015383333333333334
sI296
F0.0022833333333333334
sI297
F0.0029833333333333335
sI298
F0.0032716666666666666
sI299
F0.0020883333333333335
sI300
F0.0019683333333333332
sI301
F0.001415
sI302
F0.0018566666666666666
sI303
F0.0017783333333333334
sI304
F0.0025000000000000001
sI305
F0.0023066666666666665
sI306
F0.002
sI307
F0.00183
sI308
F0.0020233333333333331
sI309
F0.0016183333333333334
sI310
F0.0015900000000000001
sI311
F0.0015983333333333333
sI312
F0.0024599999999999999
sI313
F0.0013516666666666666
sI314
F0.0019750000000000002
sI315
F0.0017849999999999999
sI316
F0.001645
sI317
F0.0013216666666666667
sI318
F0.0015683333333333333
sI319
F0.001805
sI320
F0.004535
sI321
F0.0025116666666666668
sI322
F0.0025383333333333334
sI323
F0.0019849999999999998
sI324
F0.0017750000000000001
sI325
F0.00166
sI326
F0.00183
sI327
F0.0016233333333333334
sI328
F0.0021849999999999999
sI329
F0.0021716666666666668
sI330
F0.0018066666666666667
sI331
F0.0019233333333333333
sI332
F0.0018916666666666667
sI333
F0.0017316666666666667
sI334
F0.0017916666666666667
sI335
F0.0016249999999999999
sI336
F0.0024949999999999998
ssg434
F0.64302166666666671
sstp441
a(g11
(tRp442
S'workload'
p443
g11
(tRp444
S'n_contents'
p445
I30000
sS'rank_per_group'
p446
F4
sS'name'
p447
S'DIFFRANK'
p448
sS'n_warmup'
p449
I60000
sS'rate'
p450
F300
sS'n_measured'
p451
I600000
sS'alpha'
p452
F1
sS'n_rank'
p453
I32
ssS'cache_policy'
p454
g11
(tRp455
g447
S'LRU'
p456
ssS'strategy'
p457
g11
(tRp458
g447
S'NRR'
p459
ssS'content_placement'
p460
g11
(tRp461
g447
S'UNIFORM'
p462
ssS'cache_placement'
p463
g11
(tRp464
S'network_cache'
p465
F0.10000000000000001
sg447
g462
ssS'desc'
p466
S'Alpha: 1.0, strategy: NRR,  network cache: 0.1, topology: Datacenter,  num of datastore: 1, group size: 40. '
p467
sS'topology'
p468
g11
(tRp469
S'n_node'
p470
I320
sS'n_datastore'
p471
I1
sg447
S'DATACENTER'
p472
sS'n_member'
p473
I40
ssg11
(tRp474
S'LATENCY'
p475
g11
(tRp476
S'MEAN'
p477
F33.39996
ssS'CACHE_HIT_RATIO'
p478
g11
(tRp479
S'PER_NODE_SERVER_HIT_RATIO'
p480
g11
(tRp481
I0
F0.35882833333333336
ssS'PER_NODE_CACHE_HIT_RATIO'
p482
g11
(tRp483
I9
F0.0021900000000000001
sI10
F0.00198
sI11
F0.0019666666666666665
sI12
F0.0019016666666666667
sI13
F0.0017166666666666667
sI14
F0.0016216666666666667
sI15
F0.0014
sI16
F0.0024450000000000001
sI17
F0.00198
sI18
F0.0021450000000000002
sI19
F0.0020433333333333332
sI20
F0.0017600000000000001
sI21
F0.0017533333333333333
sI22
F0.0016433333333333332
sI23
F0.0017766666666666666
sI24
F0.0023783333333333334
sI25
F0.0019833333333333335
sI26
F0.0017916666666666667
sI27
F0.0017433333333333333
sI28
F0.0013966666666666667
sI29
F0.0017066666666666667
sI30
F0.0013966666666666667
sI31
F0.0017366666666666667
sI32
F0.0041933333333333336
sI33
F0.0039133333333333329
sI34
F0.0023050000000000002
sI35
F0.0023833333333333332
sI36
F0.0026333333333333334
sI37
F0.0013383333333333333
sI38
F0.0013933333333333332
sI39
F0.0021649999999999998
sI40
F0.0022499999999999998
sI41
F0.0023133333333333335
sI42
F0.0021233333333333334
sI43
F0.00198
sI44
F0.0017666666666666666
sI45
F0.00139
sI46
F0.00165
sI47
F0.00182
sI48
F0.0023233333333333335
sI49
F0.0017216666666666667
sI50
F0.0021033333333333334
sI51
F0.0012666666666666666
sI52
F0.0013799999999999999
sI53
F0.0017033333333333334
sI54
F0.0018016666666666667
sI55
F0.0018416666666666666
sI56
F0.0024550000000000002
sI57
F0.0014533333333333334
sI58
F0.0019833333333333335
sI59
F0.00141
sI60
F0.0017750000000000001
sI61
F0.0013916666666666667
sI62
F0.0018533333333333334
sI63
F0.0017183333333333334
sI64
F0.0013816666666666667
sI65
F0.0043833333333333337
sI66
F0.0024416666666666666
sI67
F0.001405
sI68
F0.004731666666666667
sI69
F0.0028333333333333335
sI70
F0.0017149999999999999
sI71
F0.00133
sI72
F0.0028766666666666667
sI73
F0.001415
sI74
F0.0020433333333333332
sI75
F0.0023016666666666667
sI76
F0.0023649999999999999
sI77
F0.0020600000000000002
sI78
F0.001835
sI79
F0.0018216666666666667
sI80
F0.0022483333333333335
sI81
F0.0023283333333333333
sI82
F0.0024299999999999999
sI83
F0.0013383333333333333
sI84
F0.0017516666666666666
sI85
F0.0017183333333333334
sI86
F0.0016933333333333334
sI87
F0.0013316666666666668
sI88
F0.0019416666666666666
sI89
F0.0013316666666666668
sI90
F0.0019783333333333332
sI91
F0.0017166666666666667
sI92
F0.0021849999999999999
sI93
F0.0016000000000000001
sI94
F0.0017216666666666667
sI95
F0.0016966666666666666
sI96
F0.0040533333333333333
sI97
F0.0032550000000000001
sI98
F0.0025600000000000002
sI99
F0.0019316666666666666
sI100
F0.0018966666666666667
sI101
F0.0019133333333333333
sI102
F0.0020516666666666665
sI103
F0.0016883333333333334
sI104
F0.0024133333333333333
sI105
F0.0021583333333333333
sI106
F0.001915
sI107
F0.0020383333333333334
sI108
F0.0017183333333333334
sI109
F0.0017283333333333332
sI110
F0.0019966666666666666
sI111
F0.00149
sI112
F0.0013483333333333333
sI113
F0.0020166666666666666
sI114
F0.0018716666666666667
sI115
F0.0020300000000000001
sI116
F0.0018500000000000001
sI117
F0.0016866666666666666
sI118
F0.00167
sI119
F0.0016883333333333334
sI120
F0.0025850000000000001
sI121
F0.0021050000000000001
sI122
F0.0018283333333333333
sI123
F0.0023933333333333333
sI124
F0.0016933333333333334
sI125
F0.0018333333333333333
sI126
F0.0016516666666666667
sI127
F0.0013766666666666667
sI128
F0.0042466666666666668
sI129
F0.0022333333333333333
sI130
F0.0020766666666666668
sI131
F0.0024033333333333333
sI132
F0.001905
sI133
F0.0019033333333333333
sI134
F0.0016733333333333333
sI135
F0.0022816666666666667
sI136
F0.0027866666666666665
sI137
F0.0023566666666666666
sI138
F0.0020066666666666666
sI139
F0.0019566666666666665
sI140
F0.0017216666666666667
sI141
F0.0018166666666666667
sI142
F0.0016216666666666667
sI143
F0.0014066666666666667
sI144
F0.0024216666666666666
sI145
F0.0018783333333333334
sI146
F0.0021183333333333332
sI147
F0.0017716666666666666
sI148
F0.0018583333333333334
sI149
F0.00175
sI150
F0.0017716666666666666
sI151
F0.0015333333333333334
sI152
F0.0023166666666666665
sI153
F0.0013233333333333333
sI154
F0.0018816666666666667
sI155
F0.0013533333333333333
sI156
F0.00199
sI157
F0.0013849999999999999
sI158
F0.0016383333333333334
sI159
F0.0015966666666666666
sI160
F0.0034083333333333335
sI161
F0.0049833333333333335
sI162
F0.0018666666666666666
sI163
F0.0025566666666666667
sI164
F0.001415
sI165
F0.0017433333333333333
sI166
F0.0016583333333333333
sI167
F0.0013816666666666667
sI168
F0.0025850000000000001
sI169
F0.0023616666666666669
sI170
F0.001905
sI171
F0.0018233333333333333
sI172
F0.0016183333333333334
sI173
F0.0013583333333333334
sI174
F0.0017949999999999999
sI175
F0.0017066666666666667
sI176
F0.0024433333333333334
sI177
F0.0021533333333333335
sI178
F0.0019083333333333333
sI179
F0.0013333333333333333
sI180
F0.001825
sI181
F0.0017033333333333334
sI182
F0.00164
sI183
F0.0016050000000000001
sI184
F0.0024550000000000002
sI185
F0.0020016666666666668
sI186
F0.001835
sI187
F0.0020950000000000001
sI188
F0.00139
sI189
F0.0017633333333333333
sI190
F0.0016416666666666667
sI191
F0.001555
sI192
F0.0046600000000000001
sI193
F0.0022383333333333335
sI194
F0.001915
sI195
F0.001835
sI196
F0.0029350000000000001
sI197
F0.0014083333333333333
sI198
F0.0020883333333333335
sI199
F0.0016516666666666667
sI200
F0.0022583333333333335
sI201
F0.0021050000000000001
sI202
F0.0030899999999999999
sI203
F0.0021183333333333332
sI204
F0.0017316666666666667
sI205
F0.0018483333333333333
sI206
F0.0014333333333333333
sI207
F0.001645
sI208
F0.0031849999999999999
sI209
F0.0023066666666666665
sI210
F0.0017650000000000001
sI211
F0.0021649999999999998
sI212
F0.0016883333333333334
sI213
F0.0017183333333333334
sI214
F0.0016683333333333333
sI215
F0.0016016666666666666
sI216
F0.0024883333333333333
sI217
F0.0022499999999999998
sI218
F0.00139
sI219
F0.0017783333333333334
sI220
F0.0018183333333333333
sI221
F0.0016783333333333333
sI222
F0.0016566666666666667
sI223
F0.0013550000000000001
sI224
F0.0043216666666666664
sI225
F0.0032283333333333335
sI226
F0.0024499999999999999
sI227
F0.0021116666666666666
sI228
F0.0026450000000000002
sI229
F0.00139
sI230
F0.0025783333333333335
sI231
F0.0017666666666666666
sI232
F0.0025816666666666666
sI233
F0.0022866666666666669
sI234
F0.001335
sI235
F0.0020600000000000002
sI236
F0.0020366666666666667
sI237
F0.0017833333333333334
sI238
F0.0013916666666666667
sI239
F0.0017166666666666667
sI240
F0.0023133333333333335
sI241
F0.0020116666666666668
sI242
F0.0019916666666666668
sI243
F0.0013766666666666667
sI244
F0.0018383333333333333
sI245
F0.0017099999999999999
sI246
F0.0017099999999999999
sI247
F0.0016016666666666666
sI248
F0.0024583333333333332
sI249
F0.0025633333333333333
sI250
F0.0018516666666666666
sI251
F0.0013133333333333332
sI252
F0.0016716666666666666
sI253
F0.0017650000000000001
sI254
F0.0014333333333333333
sI255
F0.0016583333333333333
sI256
F0.0052599999999999999
sI257
F0.0027383333333333335
sI258
F0.0039899999999999996
sI259
F0.0013566666666666666
sI260
F0.0021466666666666665
sI261
F0.0018833333333333334
sI262
F0.0020266666666666666
sI263
F0.0017650000000000001
sI264
F0.0023500000000000001
sI265
F0.0026050000000000001
sI266
F0.0020766666666666668
sI267
F0.0018433333333333333
sI268
F0.0014416666666666666
sI269
F0.0016433333333333332
sI270
F0.0019849999999999998
sI271
F0.0016483333333333332
sI272
F0.0021233333333333334
sI273
F0.0019183333333333333
sI274
F0.0016316666666666667
sI275
F0.0014450000000000001
sI276
F0.0020283333333333334
sI277
F0.0016833333333333333
sI278
F0.0016850000000000001
sI279
F0.001895
sI280
F0.0020366666666666667
sI281
F0.0019916666666666668
sI282
F0.0017233333333333332
sI283
F0.0020566666666666667
sI284
F0.0018833333333333334
sI285
F0.0017666666666666666
sI286
F0.0013466666666666666
sI287
F0.0015966666666666666
sI288
F0.0025999999999999999
sI289
F0.00481
sI290
F0.0027866666666666665
sI291
F0.0019033333333333333
sI292
F0.0016933333333333334
sI293
F0.0029933333333333335
sI294
F0.0016883333333333334
sI295
F0.0013833333333333334
sI296
F0.0014383333333333333
sI297
F0.0024099999999999998
sI298
F0.0017733333333333334
sI299
F0.0016383333333333334
sI300
F0.0018066666666666667
sI301
F0.001635
sI302
F0.0016483333333333332
sI303
F0.0015916666666666666
sI304
F0.0013500000000000001
sI305
F0.0013466666666666666
sI306
F0.0020999999999999999
sI307
F0.0017433333333333333
sI308
F0.0017416666666666668
sI309
F0.0016233333333333334
sI310
F0.0020283333333333334
sI311
F0.0017633333333333333
sI312
F0.0024616666666666667
sI313
F0.0019350000000000001
sI314
F0.0017633333333333333
sI315
F0.0020133333333333331
sI316
F0.0020516666666666665
sI317
F0.0016616666666666668
sI318
F0.0021233333333333334
sI319
F0.0019449999999999999
sI320
F0.003235
sI321
F0.0030599999999999998
sI322
F0.0022716666666666666
sI323
F0.0021549999999999998
sI324
F0.0013933333333333332
sI325
F0.0019583333333333332
sI326
F0.00142
sI327
F0.0016933333333333334
sI328
F0.00139
ssg477
F0.6411716666666667
sstp484
a(g11
(tRp485
S'workload'
p486
g11
(tRp487
S'n_contents'
p488
I30000
sS'rank_per_group'
p489
F4
sS'name'
p490
S'DIFFRANK'
p491
sS'n_warmup'
p492
I60000
sS'rate'
p493
F300
sS'n_measured'
p494
I600000
sS'alpha'
p495
F1
sS'n_rank'
p496
I32
ssS'cache_policy'
p497
g11
(tRp498
g490
S'LRU'
p499
ssS'strategy'
p500
g11
(tRp501
g490
S'NRR'
p502
ssS'content_placement'
p503
g11
(tRp504
g490
S'UNIFORM'
p505
ssS'cache_placement'
p506
g11
(tRp507
S'network_cache'
p508
F0.10000000000000001
sg490
g505
ssS'desc'
p509
S'Alpha: 1.0, strategy: NRR,  network cache: 0.1, topology: Datacenter,  num of datastore: 1, group size: 40. '
p510
sS'topology'
p511
g11
(tRp512
S'n_node'
p513
I320
sS'n_datastore'
p514
I1
sg490
S'DATACENTER'
p515
sS'n_member'
p516
I40
ssg11
(tRp517
S'LATENCY'
p518
g11
(tRp519
S'MEAN'
p520
F33.120506666666664
ssS'CACHE_HIT_RATIO'
p521
g11
(tRp522
S'PER_NODE_SERVER_HIT_RATIO'
p523
g11
(tRp524
I0
F0.35946166666666668
ssS'PER_NODE_CACHE_HIT_RATIO'
p525
g11
(tRp526
I9
F0.0013133333333333332
sI10
F0.0024733333333333335
sI11
F0.0019433333333333334
sI12
F0.0018033333333333334
sI13
F0.0016783333333333333
sI14
F0.0016166666666666666
sI15
F0.0016583333333333333
sI16
F0.0024983333333333333
sI17
F0.0024833333333333335
sI18
F0.0022616666666666666
sI19
F0.0014
sI20
F0.0018400000000000001
sI21
F0.0015399999999999999
sI22
F0.0017533333333333333
sI23
F0.0013450000000000001
sI24
F0.0025400000000000002
sI25
F0.0020816666666666666
sI26
F0.0018366666666666666
sI27
F0.0019916666666666668
sI28
F0.001655
sI29
F0.001475
sI30
F0.0017049999999999999
sI31
F0.0017149999999999999
sI32
F0.0039300000000000003
sI33
F0.0032950000000000002
sI34
F0.0023683333333333334
sI35
F0.0022866666666666669
sI36
F0.0019683333333333332
sI37
F0.0018416666666666666
sI38
F0.0026783333333333333
sI39
F0.00164
sI40
F0.0023400000000000001
sI41
F0.0019400000000000001
sI42
F0.0023516666666666668
sI43
F0.0013749999999999999
sI44
F0.001805
sI45
F0.0018616666666666666
sI46
F0.0019016666666666667
sI47
F0.00158
sI48
F0.0026433333333333335
sI49
F0.0024216666666666666
sI50
F0.0017916666666666667
sI51
F0.0021883333333333334
sI52
F0.0018016666666666667
sI53
F0.0018466666666666666
sI54
F0.0016083333333333334
sI55
F0.0017083333333333334
sI56
F0.0025083333333333333
sI57
F0.0021666666666666666
sI58
F0.0021099999999999999
sI59
F0.0014233333333333333
sI60
F0.0017933333333333334
sI61
F0.00191
sI62
F0.0016299999999999999
sI63
F0.0016850000000000001
sI64
F0.0014566666666666667
sI65
F0.0037000000000000002
sI66
F0.0014350000000000001
sI67
F0.0028583333333333334
sI68
F0.0020349999999999999
sI69
F0.0020433333333333332
sI70
F0.0032633333333333334
sI71
F0.0017033333333333334
sI72
F0.0028366666666666666
sI73
F0.0020866666666666668
sI74
F0.0021566666666666665
sI75
F0.0018266666666666668
sI76
F0.0018816666666666667
sI77
F0.0019566666666666665
sI78
F0.001735
sI79
F0.0018216666666666667
sI80
F0.0021933333333333332
sI81
F0.0019849999999999998
sI82
F0.0013849999999999999
sI83
F0.0022066666666666667
sI84
F0.0019166666666666666
sI85
F0.0017766666666666666
sI86
F0.0017533333333333333
sI87
F0.0015566666666666667
sI88
F0.0024383333333333332
sI89
F0.002065
sI90
F0.0019949999999999998
sI91
F0.0019300000000000001
sI92
F0.0014499999999999999
sI93
F0.0013749999999999999
sI94
F0.0017149999999999999
sI95
F0.0018
sI96
F0.00464
sI97
F0.001415
sI98
F0.0026133333333333334
sI99
F0.0014183333333333333
sI100
F0.0017333333333333333
sI101
F0.0013366666666666666
sI102
F0.0016299999999999999
sI103
F0.0031483333333333333
sI104
F0.0027550000000000001
sI105
F0.0023116666666666667
sI106
F0.0013550000000000001
sI107
F0.0024133333333333333
sI108
F0.0017933333333333334
sI109
F0.001825
sI110
F0.0019933333333333335
sI111
F0.0017816666666666666
sI112
F0.002555
sI113
F0.0021333333333333334
sI114
F0.0019316666666666666
sI115
F0.0021883333333333334
sI116
F0.0019666666666666665
sI117
F0.0018066666666666667
sI118
F0.0017616666666666666
sI119
F0.0016133333333333334
sI120
F0.0021700000000000001
sI121
F0.0021066666666666668
sI122
F0.0019333333333333333
sI123
F0.0019916666666666668
sI124
F0.0013616666666666666
sI125
F0.0017899999999999999
sI126
F0.001735
sI127
F0.0016883333333333334
sI128
F0.0031099999999999999
sI129
F0.0035533333333333333
sI130
F0.0046483333333333333
sI131
F0.0017816666666666666
sI132
F0.0020249999999999999
sI133
F0.0022399999999999998
sI134
F0.0018016666666666667
sI135
F0.0017083333333333334
sI136
F0.0026683333333333333
sI137
F0.0025433333333333332
sI138
F0.0021216666666666667
sI139
F0.0017633333333333333
sI140
F0.0018216666666666667
sI141
F0.0016266666666666667
sI142
F0.0018266666666666668
sI143
F0.00158
sI144
F0.0024366666666666668
sI145
F0.0019666666666666665
sI146
F0.0019966666666666666
sI147
F0.0019750000000000002
sI148
F0.0016966666666666666
sI149
F0.001735
sI150
F0.0017899999999999999
sI151
F0.0016283333333333334
sI152
F0.0023216666666666668
sI153
F0.0014033333333333333
sI154
F0.0020066666666666666
sI155
F0.0018483333333333333
sI156
F0.0018183333333333333
sI157
F0.0019066666666666668
sI158
F0.0015616666666666667
sI159
F0.0016783333333333333
sI160
F0.001415
sI161
F0.0019466666666666666
sI162
F0.0020933333333333333
sI163
F0.0030533333333333332
sI164
F0.0013566666666666666
sI165
F0.0016983333333333334
sI166
F0.00192
sI167
F0.00182
sI168
F0.0020916666666666666
sI169
F0.0025799999999999998
sI170
F0.00232
sI171
F0.0017849999999999999
sI172
F0.0014400000000000001
sI173
F0.0016999999999999999
sI174
F0.0017183333333333334
sI175
F0.001755
sI176
F0.0014366666666666666
sI177
F0.0024316666666666666
sI178
F0.0021733333333333335
sI179
F0.0019366666666666666
sI180
F0.0013433333333333333
sI181
F0.0018616666666666666
sI182
F0.0016616666666666668
sI183
F0.0017616666666666666
sI184
F0.0014066666666666667
sI185
F0.0024750000000000002
sI186
F0.0020400000000000001
sI187
F0.0013500000000000001
sI188
F0.0013733333333333334
sI189
F0.001895
sI190
F0.0016333333333333334
sI191
F0.0015900000000000001
sI192
F0.0030950000000000001
sI193
F0.0044133333333333333
sI194
F0.0024849999999999998
sI195
F0.0025200000000000001
sI196
F0.0019583333333333332
sI197
F0.0026516666666666668
sI198
F0.0017833333333333334
sI199
F0.00172
sI200
F0.0014033333333333333
sI201
F0.0020950000000000001
sI202
F0.0022416666666666665
sI203
F0.0018316666666666668
sI204
F0.0017916666666666667
sI205
F0.0016750000000000001
sI206
F0.0013833333333333334
sI207
F0.0014350000000000001
sI208
F0.0025266666666666666
sI209
F0.0020933333333333333
sI210
F0.0024716666666666667
sI211
F0.0020883333333333335
sI212
F0.0018400000000000001
sI213
F0.0013733333333333334
sI214
F0.0017016666666666666
sI215
F0.001485
sI216
F0.0024183333333333335
sI217
F0.0020699999999999998
sI218
F0.0020333333333333332
sI219
F0.0018333333333333333
sI220
F0.0017316666666666667
sI221
F0.0017466666666666668
sI222
F0.0016433333333333332
sI223
F0.0017049999999999999
sI224
F0.0046266666666666669
sI225
F0.0013816666666666667
sI226
F0.0032950000000000002
sI227
F0.0029650000000000002
sI228
F0.0012849999999999999
sI229
F0.0020183333333333334
sI230
F0.0018083333333333332
sI231
F0.0021166666666666669
sI232
F0.0022733333333333334
sI233
F0.0022166666666666667
sI234
F0.0020383333333333334
sI235
F0.0014033333333333333
sI236
F0.0022266666666666667
sI237
F0.0019266666666666666
sI238
F0.0018
sI239
F0.0018699999999999999
sI240
F0.0022516666666666666
sI241
F0.0019650000000000002
sI242
F0.0013799999999999999
sI243
F0.0017466666666666668
sI244
F0.00134
sI245
F0.00189
sI246
F0.0018933333333333332
sI247
F0.0016366666666666667
sI248
F0.0022333333333333333
sI249
F0.0022616666666666666
sI250
F0.0022966666666666665
sI251
F0.0018916666666666667
sI252
F0.001645
sI253
F0.0015883333333333333
sI254
F0.0016216666666666667
sI255
F0.0015250000000000001
sI256
F0.0036083333333333332
sI257
F0.0037883333333333332
sI258
F0.0018749999999999999
sI259
F0.0013983333333333332
sI260
F0.0018116666666666667
sI261
F0.0019916666666666668
sI262
F0.0020166666666666666
sI263
F0.0027049999999999999
sI264
F0.0027016666666666665
sI265
F0.0024016666666666665
sI266
F0.0020216666666666668
sI267
F0.00131
sI268
F0.0017166666666666667
sI269
F0.0018083333333333332
sI270
F0.0014599999999999999
sI271
F0.0016166666666666666
sI272
F0.0025183333333333334
sI273
F0.0020383333333333334
sI274
F0.00191
sI275
F0.0019133333333333333
sI276
F0.0018866666666666667
sI277
F0.0017833333333333334
sI278
F0.0016100000000000001
sI279
F0.0014666666666666667
sI280
F0.0021683333333333333
sI281
F0.0019183333333333333
sI282
F0.0021833333333333331
sI283
F0.0020566666666666667
sI284
F0.0013633333333333334
sI285
F0.0018533333333333334
sI286
F0.00164
sI287
F0.0016666666666666668
sI288
F0.0028500000000000001
sI289
F0.0042399999999999998
sI290
F0.0032483333333333335
sI291
F0.0017216666666666667
sI292
F0.0015866666666666666
sI293
F0.0017983333333333334
sI294
F0.0014599999999999999
sI295
F0.0019633333333333334
sI296
F0.00197
sI297
F0.0022083333333333334
sI298
F0.0020066666666666666
sI299
F0.0014016666666666667
sI300
F0.0018816666666666667
sI301
F0.0014300000000000001
sI302
F0.0016750000000000001
sI303
F0.00139
sI304
F0.0024399999999999999
sI305
F0.0020916666666666666
sI306
F0.0017166666666666667
sI307
F0.0021583333333333333
sI308
F0.0013616666666666666
sI309
F0.0016733333333333333
sI310
F0.0017433333333333333
sI311
F0.0018016666666666667
sI312
F0.0025066666666666666
sI313
F0.0020116666666666668
sI314
F0.0018083333333333332
sI315
F0.00183
sI316
F0.0018383333333333333
sI317
F0.0018066666666666667
sI318
F0.0016916666666666666
sI319
F0.0017833333333333334
sI320
F0.0014
sI321
F0.0040816666666666666
sI322
F0.0022016666666666669
sI323
F0.0024083333333333335
sI324
F0.0022650000000000001
sI325
F0.00148
sI326
F0.0019933333333333335
sI327
F0.0013433333333333333
sI328
F0.0025016666666666668
ssg520
F0.64053833333333332
sstp527
a(g11
(tRp528
S'workload'
p529
g11
(tRp530
S'n_contents'
p531
I30000
sS'rank_per_group'
p532
F8
sS'name'
p533
S'DIFFRANK'
p534
sS'n_warmup'
p535
I60000
sS'rate'
p536
F300
sS'n_measured'
p537
I600000
sS'alpha'
p538
F1
sS'n_rank'
p539
I32
ssS'cache_policy'
p540
g11
(tRp541
g533
S'LRU'
p542
ssS'strategy'
p543
g11
(tRp544
g533
S'NRR'
p545
ssS'content_placement'
p546
g11
(tRp547
g533
S'UNIFORM'
p548
ssS'cache_placement'
p549
g11
(tRp550
S'network_cache'
p551
F0.10000000000000001
sg533
g548
ssS'desc'
p552
S'Alpha: 1.0, strategy: NRR,  network cache: 0.1, topology: Datacenter,  num of datastore: 1, group size: 80. '
p553
sS'topology'
p554
g11
(tRp555
S'n_node'
p556
I320
sS'n_datastore'
p557
I1
sg533
S'DATACENTER'
p558
sS'n_member'
p559
I80
ssg11
(tRp560
S'LATENCY'
p561
g11
(tRp562
S'MEAN'
p563
F37.199273333333331
ssS'CACHE_HIT_RATIO'
p564
g11
(tRp565
S'PER_NODE_SERVER_HIT_RATIO'
p566
g11
(tRp567
I0
F0.36853833333333336
ssS'PER_NODE_CACHE_HIT_RATIO'
p568
g11
(tRp569
I5
F0.0016083333333333334
sI6
F0.0024099999999999998
sI7
F0.00131
sI8
F0.0038533333333333332
sI9
F0.0012800000000000001
sI10
F0.0024450000000000001
sI11
F0.0018133333333333332
sI12
F0.0014483333333333334
sI13
F0.0019516666666666667
sI14
F0.0021483333333333333
sI15
F0.0016966666666666666
sI16
F0.0014283333333333333
sI17
F0.0014433333333333334
sI18
F0.0013783333333333334
sI19
F0.0014
sI20
F0.0019366666666666666
sI21
F0.0018383333333333333
sI22
F0.0017833333333333334
sI23
F0.00166
sI24
F0.0024016666666666665
sI25
F0.0021966666666666666
sI26
F0.0017883333333333334
sI27
F0.001395
sI28
F0.0017966666666666667
sI29
F0.0017966666666666667
sI30
F0.0017466666666666668
sI31
F0.0014016666666666667
sI32
F0.0032299999999999998
sI33
F0.0052183333333333335
sI34
F0.0043449999999999999
sI35
F0.0013583333333333334
sI36
F0.0017783333333333334
sI37
F0.0013683333333333334
sI38
F0.0020816666666666666
sI39
F0.0017383333333333333
sI40
F0.002385
sI41
F0.0020316666666666669
sI42
F0.0021433333333333335
sI43
F0.0018083333333333332
sI44
F0.0014133333333333333
sI45
F0.0014433333333333334
sI46
F0.00192
sI47
F0.0017416666666666668
sI48
F0.00191
sI49
F0.0021516666666666667
sI50
F0.0023700000000000001
sI51
F0.0020149999999999999
sI52
F0.0021883333333333334
sI53
F0.0020383333333333334
sI54
F0.001745
sI55
F0.00142
sI56
F0.0023500000000000001
sI57
F0.0023333333333333335
sI58
F0.0012983333333333334
sI59
F0.001885
sI60
F0.00156
sI61
F0.0018216666666666667
sI62
F0.0013933333333333332
sI63
F0.0018083333333333332
sI64
F0.0014416666666666666
sI65
F0.0029250000000000001
sI66
F0.0022716666666666666
sI67
F0.0027533333333333333
sI68
F0.0022966666666666665
sI69
F0.0018616666666666666
sI70
F0.0018433333333333333
sI71
F0.0014166666666666668
sI72
F0.0027633333333333334
sI73
F0.0013799999999999999
sI74
F0.0020783333333333335
sI75
F0.0018566666666666666
sI76
F0.0014466666666666666
sI77
F0.0018699999999999999
sI78
F0.0026800000000000001
sI79
F0.0014683333333333334
sI80
F0.0025999999999999999
sI81
F0.0014183333333333333
sI82
F0.0013883333333333334
sI83
F0.0019533333333333334
sI84
F0.0019716666666666667
sI85
F0.0018716666666666667
sI86
F0.0016633333333333333
sI87
F0.0014350000000000001
sI88
F0.001335
sI89
F0.0013966666666666667
sI90
F0.0019499999999999999
sI91
F0.0017416666666666668
sI92
F0.0013716666666666667
sI93
F0.0018550000000000001
sI94
F0.0018083333333333332
sI95
F0.0017583333333333333
sI96
F0.0041766666666666671
sI97
F0.0013433333333333333
sI98
F0.0036849999999999999
sI99
F0.0023183333333333333
sI100
F0.0022850000000000001
sI101
F0.0020733333333333333
sI102
F0.0013733333333333334
sI103
F0.00173
sI104
F0.0027183333333333335
sI105
F0.0022833333333333334
sI106
F0.0020950000000000001
sI107
F0.0018333333333333333
sI108
F0.00139
sI109
F0.0018
sI110
F0.0017716666666666666
sI111
F0.0015466666666666667
sI112
F0.0023
sI113
F0.0026183333333333332
sI114
F0.0014166666666666668
sI115
F0.0019466666666666666
sI116
F0.0021533333333333335
sI117
F0.0018550000000000001
sI118
F0.002085
sI119
F0.0016800000000000001
sI120
F0.0023900000000000002
sI121
F0.0014066666666666667
sI122
F0.0019183333333333333
sI123
F0.0019550000000000001
sI124
F0.0013833333333333334
sI125
F0.0019383333333333334
sI126
F0.0016766666666666666
sI127
F0.001665
sI128
F0.0036883333333333334
sI129
F0.0027200000000000002
sI130
F0.0019266666666666666
sI131
F0.0025083333333333333
sI132
F0.0023683333333333334
sI133
F0.0014
sI134
F0.0019416666666666666
sI135
F0.001825
sI136
F0.0013983333333333332
sI137
F0.002385
sI138
F0.0021616666666666668
sI139
F0.0013983333333333332
sI140
F0.0017566666666666666
sI141
F0.0016716666666666666
sI142
F0.0016666666666666668
sI143
F0.0013649999999999999
sI144
F0.0023583333333333334
sI145
F0.0013016666666666667
sI146
F0.0020233333333333331
sI147
F0.0013866666666666667
sI148
F0.0017750000000000001
sI149
F0.0018749999999999999
sI150
F0.0014383333333333333
sI151
F0.001745
sI152
F0.0023133333333333335
sI153
F0.0014333333333333333
sI154
F0.0019516666666666667
sI155
F0.0022300000000000002
sI156
F0.0014883333333333333
sI157
F0.0018283333333333333
sI158
F0.0016233333333333334
sI159
F0.00181
sI160
F0.0036483333333333333
sI161
F0.0021116666666666666
sI162
F0.0042700000000000004
sI163
F0.0013983333333333332
sI164
F0.0022300000000000002
sI165
F0.0018983333333333333
sI166
F0.0024099999999999998
sI167
F0.0018533333333333334
sI168
F0.00248
sI169
F0.0034433333333333334
sI170
F0.0023583333333333334
sI171
F0.0019633333333333334
sI172
F0.0020999999999999999
sI173
F0.0019616666666666667
sI174
F0.0017899999999999999
sI175
F0.0017166666666666667
sI176
F0.0025116666666666668
sI177
F0.0024483333333333332
sI178
F0.0014216666666666666
sI179
F0.0019283333333333333
sI180
F0.0017966666666666667
sI181
F0.0017383333333333333
sI182
F0.0017166666666666667
sI183
F0.001645
sI184
F0.0022399999999999998
sI185
F0.00134
sI186
F0.0019033333333333333
sI187
F0.0019300000000000001
sI188
F0.0018833333333333334
sI189
F0.0017883333333333334
sI190
F0.0016283333333333334
sI191
F0.0013816666666666667
sI192
F0.0014549999999999999
sI193
F0.0014133333333333333
sI194
F0.0013716666666666667
sI195
F0.0034133333333333333
sI196
F0.00199
sI197
F0.0022033333333333332
sI198
F0.0013683333333333334
sI199
F0.0017650000000000001
sI200
F0.0039416666666666662
sI201
F0.0014166666666666668
sI202
F0.0028800000000000002
sI203
F0.0027333333333333333
sI204
F0.0016933333333333334
sI205
F0.001645
sI206
F0.0013500000000000001
sI207
F0.0016616666666666668
sI208
F0.0021833333333333331
sI209
F0.0021933333333333332
sI210
F0.0022683333333333331
sI211
F0.0019400000000000001
sI212
F0.001885
sI213
F0.001755
sI214
F0.001665
sI215
F0.0017133333333333334
sI216
F0.0025349999999999999
sI217
F0.001505
sI218
F0.0020300000000000001
sI219
F0.0022266666666666667
sI220
F0.0018516666666666666
sI221
F0.0017383333333333333
sI222
F0.0017033333333333334
sI223
F0.0013733333333333334
sI224
F0.00329
sI225
F0.0014433333333333334
sI226
F0.0029166666666666668
sI227
F0.003385
sI228
F0.0021266666666666665
sI229
F0.00139
sI230
F0.0018266666666666668
sI231
F0.0019183333333333333
sI232
F0.0014716666666666667
sI233
F0.0013416666666666666
sI234
F0.0023416666666666668
sI235
F0.0022850000000000001
sI236
F0.0013716666666666667
sI237
F0.0020416666666666665
sI238
F0.00199
sI239
F0.0014083333333333333
sI240
F0.0021233333333333334
sI241
F0.0020616666666666665
sI242
F0.0017683333333333333
sI243
F0.0016633333333333333
sI244
F0.0020716666666666665
sI245
F0.0017466666666666668
sI246
F0.0016616666666666668
sI247
F0.0017616666666666666
sI248
F0.0014766666666666667
sI249
F0.0021450000000000002
sI250
F0.0021933333333333332
sI251
F0.0014333333333333333
sI252
F0.0016683333333333333
sI253
F0.0020333333333333332
sI254
F0.0018666666666666666
sI255
F0.0015783333333333333
sI256
F0.00398
sI257
F0.0038933333333333333
sI258
F0.0025000000000000001
sI259
F0.0028416666666666668
sI260
F0.0018716666666666667
sI261
F0.0021916666666666668
sI262
F0.0037016666666666665
sI263
F0.0019266666666666666
sI264
F0.00282
sI265
F0.0025049999999999998
sI266
F0.0021516666666666667
sI267
F0.0021766666666666666
sI268
F0.0016183333333333334
sI269
F0.0018116666666666667
sI270
F0.00167
sI271
F0.001895
sI272
F0.0022633333333333333
sI273
F0.0014116666666666668
sI274
F0.0019866666666666665
sI275
F0.0017650000000000001
sI276
F0.0014333333333333333
sI277
F0.00172
sI278
F0.0018133333333333332
sI279
F0.00165
sI280
F0.0023649999999999999
sI281
F0.0022650000000000001
sI282
F0.0019116666666666668
sI283
F0.0013033333333333334
sI284
F0.0017099999999999999
sI285
F0.0019616666666666667
sI286
F0.00181
sI287
F0.0014016666666666667
sI288
F0.0013633333333333334
sI289
F0.0023516666666666668
sI290
F0.0013783333333333334
sI291
F0.0013233333333333333
sI292
F0.0024766666666666665
sI293
F0.0014666666666666667
sI294
F0.0029233333333333333
sI295
F0.0022933333333333334
sI296
F0.0024133333333333333
sI297
F0.0018916666666666667
sI298
F0.0017783333333333334
sI299
F0.0019316666666666666
sI300
F0.0012833333333333334
sI301
F0.0013616666666666666
sI302
F0.0013616666666666666
sI303
F0.0017166666666666667
sI304
F0.0013733333333333334
sI305
F0.0025600000000000002
sI306
F0.0019683333333333332
sI307
F0.001805
sI308
F0.0014083333333333333
sI309
F0.0016633333333333333
sI310
F0.0016783333333333333
sI311
F0.001575
sI312
F0.0025633333333333333
sI313
F0.001415
sI314
F0.0017700000000000001
sI315
F0.00216
sI316
F0.0018333333333333333
sI317
F0.0018566666666666666
sI318
F0.0016900000000000001
sI319
F0.0013316666666666668
sI320
F0.0039249999999999997
sI321
F0.0023333333333333335
sI322
F0.0026800000000000001
sI323
F0.0020283333333333334
sI324
F0.0015
ssg563
F0.6314616666666667
sstp570
a(g11
(tRp571
S'workload'
p572
g11
(tRp573
S'n_contents'
p574
I30000
sS'rank_per_group'
p575
F8
sS'name'
p576
S'DIFFRANK'
p577
sS'n_warmup'
p578
I60000
sS'rate'
p579
F300
sS'n_measured'
p580
I600000
sS'alpha'
p581
F1
sS'n_rank'
p582
I32
ssS'cache_policy'
p583
g11
(tRp584
g576
S'LRU'
p585
ssS'strategy'
p586
g11
(tRp587
g576
S'NRR'
p588
ssS'content_placement'
p589
g11
(tRp590
g576
S'UNIFORM'
p591
ssS'cache_placement'
p592
g11
(tRp593
S'network_cache'
p594
F0.10000000000000001
sg576
g591
ssS'desc'
p595
S'Alpha: 1.0, strategy: NRR,  network cache: 0.1, topology: Datacenter,  num of datastore: 1, group size: 80. '
p596
sS'topology'
p597
g11
(tRp598
S'n_node'
p599
I320
sS'n_datastore'
p600
I1
sg576
S'DATACENTER'
p601
sS'n_member'
p602
I80
ssg11
(tRp603
S'LATENCY'
p604
g11
(tRp605
S'MEAN'
p606
F36.783806666666663
ssS'CACHE_HIT_RATIO'
p607
g11
(tRp608
S'PER_NODE_SERVER_HIT_RATIO'
p609
g11
(tRp610
I0
F0.36597666666666667
ssS'PER_NODE_CACHE_HIT_RATIO'
p611
g11
(tRp612
I5
F0.002085
sI6
F0.0013216666666666667
sI7
F0.0019716666666666667
sI8
F0.0013233333333333333
sI9
F0.0021800000000000001
sI10
F0.00191
sI11
F0.0021416666666666667
sI12
F0.0017783333333333334
sI13
F0.0013849999999999999
sI14
F0.001745
sI15
F0.0016683333333333333
sI16
F0.0012899999999999999
sI17
F0.0025633333333333333
sI18
F0.0019650000000000002
sI19
F0.0014183333333333333
sI20
F0.0017466666666666668
sI21
F0.0014499999999999999
sI22
F0.0017216666666666667
sI23
F0.00131
sI24
F0.0014583333333333334
sI25
F0.0021633333333333335
sI26
F0.0020833333333333333
sI27
F0.0017816666666666666
sI28
F0.001815
sI29
F0.0016999999999999999
sI30
F0.0018166666666666667
sI31
F0.0020433333333333332
sI32
F0.0014766666666666667
sI33
F0.0024983333333333333
sI34
F0.0040483333333333335
sI35
F0.0013516666666666666
sI36
F0.0020433333333333332
sI37
F0.0012883333333333334
sI38
F0.0017483333333333333
sI39
F0.0017833333333333334
sI40
F0.0028300000000000001
sI41
F0.0024083333333333335
sI42
F0.0021183333333333332
sI43
F0.0021183333333333332
sI44
F0.0014316666666666666
sI45
F0.00139
sI46
F0.0016233333333333334
sI47
F0.0013450000000000001
sI48
F0.0025116666666666668
sI49
F0.0026800000000000001
sI50
F0.0013816666666666667
sI51
F0.0013883333333333334
sI52
F0.0018183333333333333
sI53
F0.0017133333333333334
sI54
F0.0016733333333333333
sI55
F0.0016466666666666667
sI56
F0.0023316666666666668
sI57
F0.0022066666666666667
sI58
F0.0013333333333333333
sI59
F0.0019233333333333333
sI60
F0.0019183333333333333
sI61
F0.00142
sI62
F0.0017316666666666667
sI63
F0.0014300000000000001
sI64
F0.0045433333333333333
sI65
F0.0040983333333333332
sI66
F0.0023866666666666667
sI67
F0.0033883333333333335
sI68
F0.0022866666666666669
sI69
F0.0018816666666666667
sI70
F0.0019716666666666667
sI71
F0.0020516666666666665
sI72
F0.0013600000000000001
sI73
F0.0021183333333333332
sI74
F0.0016733333333333333
sI75
F0.00173
sI76
F0.0021949999999999999
sI77
F0.0016933333333333334
sI78
F0.0024633333333333334
sI79
F0.0019483333333333334
sI80
F0.0024433333333333334
sI81
F0.0028716666666666665
sI82
F0.0013749999999999999
sI83
F0.0022550000000000001
sI84
F0.001805
sI85
F0.0016666666666666668
sI86
F0.0013799999999999999
sI87
F0.001635
sI88
F0.0024750000000000002
sI89
F0.0014083333333333333
sI90
F0.0022916666666666667
sI91
F0.0012783333333333334
sI92
F0.0017416666666666668
sI93
F0.0017666666666666666
sI94
F0.00165
sI95
F0.0016133333333333334
sI96
F0.0040099999999999997
sI97
F0.0025033333333333335
sI98
F0.0031033333333333334
sI99
F0.0025049999999999998
sI100
F0.0019383333333333334
sI101
F0.0019433333333333334
sI102
F0.0015233333333333334
sI103
F0.0016833333333333333
sI104
F0.0026466666666666665
sI105
F0.0014783333333333332
sI106
F0.0020516666666666665
sI107
F0.0019616666666666667
sI108
F0.0017799999999999999
sI109
F0.0017799999999999999
sI110
F0.001405
sI111
F0.0017583333333333333
sI112
F0.0023500000000000001
sI113
F0.002065
sI114
F0.0020966666666666668
sI115
F0.00199
sI116
F0.0017183333333333334
sI117
F0.0018066666666666667
sI118
F0.00174
sI119
F0.0014350000000000001
sI120
F0.0025383333333333334
sI121
F0.0021983333333333334
sI122
F0.0013699999999999999
sI123
F0.0014350000000000001
sI124
F0.0016800000000000001
sI125
F0.0017766666666666666
sI126
F0.0016566666666666667
sI127
F0.0016100000000000001
sI128
F0.0046049999999999997
sI129
F0.0036633333333333335
sI130
F0.0029866666666666665
sI131
F0.0021383333333333332
sI132
F0.0014
sI133
F0.0024966666666666666
sI134
F0.00189
sI135
F0.0014
sI136
F0.0015033333333333333
sI137
F0.002415
sI138
F0.0014166666666666668
sI139
F0.0020616666666666665
sI140
F0.0019916666666666668
sI141
F0.0017799999999999999
sI142
F0.0014400000000000001
sI143
F0.0016866666666666666
sI144
F0.0022816666666666667
sI145
F0.0020966666666666668
sI146
F0.0021733333333333335
sI147
F0.0018466666666666666
sI148
F0.0013450000000000001
sI149
F0.0018033333333333334
sI150
F0.0014233333333333333
sI151
F0.0014450000000000001
sI152
F0.0022016666666666669
sI153
F0.0019916666666666668
sI154
F0.0022933333333333334
sI155
F0.0018166666666666667
sI156
F0.0019133333333333333
sI157
F0.0017283333333333332
sI158
F0.0016766666666666666
sI159
F0.0013466666666666666
sI160
F0.0026649999999999998
sI161
F0.0013699999999999999
sI162
F0.0033383333333333333
sI163
F0.0021150000000000001
sI164
F0.0024516666666666667
sI165
F0.0019216666666666666
sI166
F0.00215
sI167
F0.0016883333333333334
sI168
F0.0026116666666666667
sI169
F0.001395
sI170
F0.0026649999999999998
sI171
F0.0020600000000000002
sI172
F0.0018483333333333333
sI173
F0.00172
sI174
F0.0017116666666666667
sI175
F0.001665
sI176
F0.0013133333333333332
sI177
F0.00197
sI178
F0.0014183333333333333
sI179
F0.0018566666666666666
sI180
F0.0019116666666666668
sI181
F0.001735
sI182
F0.0016533333333333333
sI183
F0.0015733333333333333
sI184
F0.0014183333333333333
sI185
F0.0023349999999999998
sI186
F0.0020600000000000002
sI187
F0.0020349999999999999
sI188
F0.0021150000000000001
sI189
F0.0017833333333333334
sI190
F0.0015916666666666666
sI191
F0.00133
sI192
F0.0027699999999999999
sI193
F0.0044283333333333336
sI194
F0.0014300000000000001
sI195
F0.0022399999999999998
sI196
F0.0014266666666666666
sI197
F0.0021666666666666666
sI198
F0.0021916666666666668
sI199
F0.002885
sI200
F0.0031283333333333332
sI201
F0.0021050000000000001
sI202
F0.0021216666666666667
sI203
F0.0022233333333333332
sI204
F0.0018416666666666666
sI205
F0.0016816666666666666
sI206
F0.0018283333333333333
sI207
F0.001885
sI208
F0.0025716666666666665
sI209
F0.0012366666666666667
sI210
F0.0020449999999999999
sI211
F0.0021050000000000001
sI212
F0.0019599999999999999
sI213
F0.0017266666666666667
sI214
F0.0017866666666666667
sI215
F0.0014300000000000001
sI216
F0.0013583333333333334
sI217
F0.0022566666666666668
sI218
F0.0022650000000000001
sI219
F0.0017483333333333333
sI220
F0.0018316666666666668
sI221
F0.0013550000000000001
sI222
F0.0019883333333333333
sI223
F0.0017383333333333333
sI224
F0.0013500000000000001
sI225
F0.0045466666666666667
sI226
F0.0014083333333333333
sI227
F0.0013883333333333334
sI228
F0.0013816666666666667
sI229
F0.0028833333333333332
sI230
F0.0030200000000000001
sI231
F0.0013583333333333334
sI232
F0.0024583333333333332
sI233
F0.0022750000000000001
sI234
F0.0019350000000000001
sI235
F0.0017366666666666667
sI236
F0.0019683333333333332
sI237
F0.0018
sI238
F0.0013600000000000001
sI239
F0.0018933333333333332
sI240
F0.002555
sI241
F0.0022499999999999998
sI242
F0.0022916666666666667
sI243
F0.0018616666666666666
sI244
F0.0017433333333333333
sI245
F0.0018400000000000001
sI246
F0.0015433333333333334
sI247
F0.0016999999999999999
sI248
F0.0014166666666666668
sI249
F0.0022533333333333333
sI250
F0.0020666666666666667
sI251
F0.0018433333333333333
sI252
F0.0017933333333333334
sI253
F0.0017416666666666668
sI254
F0.0017616666666666666
sI255
F0.001655
sI256
F0.0038516666666666669
sI257
F0.0014816666666666667
sI258
F0.0017333333333333333
sI259
F0.0039166666666666664
sI260
F0.0026783333333333333
sI261
F0.001825
sI262
F0.0018716666666666667
sI263
F0.0013799999999999999
sI264
F0.003385
sI265
F0.0014133333333333333
sI266
F0.0031716666666666668
sI267
F0.0020616666666666665
sI268
F0.0013933333333333332
sI269
F0.0019183333333333333
sI270
F0.001895
sI271
F0.001415
sI272
F0.0025116666666666668
sI273
F0.0013916666666666667
sI274
F0.0013766666666666667
sI275
F0.0017466666666666668
sI276
F0.0018983333333333333
sI277
F0.0020533333333333332
sI278
F0.0014516666666666666
sI279
F0.0016716666666666666
sI280
F0.0025799999999999998
sI281
F0.0019333333333333333
sI282
F0.0023249999999999998
sI283
F0.0020200000000000001
sI284
F0.0019066666666666668
sI285
F0.0013033333333333334
sI286
F0.0018516666666666666
sI287
F0.0016366666666666667
sI288
F0.0048050000000000002
sI289
F0.0024133333333333333
sI290
F0.001405
sI291
F0.0014300000000000001
sI292
F0.0026866666666666666
sI293
F0.0021683333333333333
sI294
F0.0019333333333333333
sI295
F0.0017533333333333333
sI296
F0.0024516666666666667
sI297
F0.0024566666666666665
sI298
F0.0021966666666666666
sI299
F0.00191
sI300
F0.0017716666666666666
sI301
F0.0019316666666666666
sI302
F0.0017916666666666667
sI303
F0.0018133333333333332
sI304
F0.0041700000000000001
sI305
F0.0021766666666666666
sI306
F0.0019566666666666665
sI307
F0.0019550000000000001
sI308
F0.0013883333333333334
sI309
F0.001415
sI310
F0.0013983333333333332
sI311
F0.0018283333333333333
sI312
F0.002225
sI313
F0.0019949999999999998
sI314
F0.0020266666666666666
sI315
F0.0014833333333333332
sI316
F0.0018516666666666666
sI317
F0.00166
sI318
F0.0017133333333333334
sI319
F0.001415
sI320
F0.0026983333333333334
sI321
F0.0017433333333333333
sI322
F0.001485
sI323
F0.0013033333333333334
sI324
F0.0021616666666666668
ssg606
F0.63402333333333338
sstp613
a(g11
(tRp614
S'workload'
p615
g11
(tRp616
S'n_contents'
p617
I30000
sS'rank_per_group'
p618
F16
sS'name'
p619
S'DIFFRANK'
p620
sS'n_warmup'
p621
I60000
sS'rate'
p622
F300
sS'n_measured'
p623
I600000
sS'alpha'
p624
F1
sS'n_rank'
p625
I32
ssS'cache_policy'
p626
g11
(tRp627
g619
S'LRU'
p628
ssS'strategy'
p629
g11
(tRp630
g619
S'NRR'
p631
ssS'content_placement'
p632
g11
(tRp633
g619
S'UNIFORM'
p634
ssS'cache_placement'
p635
g11
(tRp636
S'network_cache'
p637
F0.10000000000000001
sg619
g634
ssS'desc'
p638
S'Alpha: 1.0, strategy: NRR,  network cache: 0.1, topology: Datacenter,  num of datastore: 1, group size: 160. '
p639
sS'topology'
p640
g11
(tRp641
S'n_node'
p642
I320
sS'n_datastore'
p643
I1
sg619
S'DATACENTER'
p644
sS'n_member'
p645
I160
ssg11
(tRp646
S'LATENCY'
p647
g11
(tRp648
S'MEAN'
p649
F41.793786666666669
ssS'CACHE_HIT_RATIO'
p650
g11
(tRp651
S'PER_NODE_SERVER_HIT_RATIO'
p652
g11
(tRp653
I0
F0.37755833333333333
ssS'PER_NODE_CACHE_HIT_RATIO'
p654
g11
(tRp655
I3
F0.0024083333333333335
sI4
F0.0019866666666666665
sI5
F0.0020083333333333333
sI6
F0.0018433333333333333
sI7
F0.0018733333333333334
sI8
F0.0024766666666666665
sI9
F0.0013633333333333334
sI10
F0.0013516666666666666
sI11
F0.0020516666666666665
sI12
F0.0018033333333333334
sI13
F0.001395
sI14
F0.0013583333333333334
sI15
F0.001755
sI16
F0.0025683333333333335
sI17
F0.0012933333333333334
sI18
F0.001395
sI19
F0.0017983333333333334
sI20
F0.0020533333333333332
sI21
F0.0013633333333333334
sI22
F0.0013183333333333332
sI23
F0.0015916666666666666
sI24
F0.0013616666666666666
sI25
F0.0021966666666666666
sI26
F0.0019216666666666666
sI27
F0.0019033333333333333
sI28
F0.0013533333333333333
sI29
F0.0018783333333333334
sI30
F0.0017416666666666668
sI31
F0.0015950000000000001
sI32
F0.0041633333333333331
sI33
F0.003705
sI34
F0.0014433333333333334
sI35
F0.0024333333333333334
sI36
F0.0013783333333333334
sI37
F0.0019683333333333332
sI38
F0.0037283333333333335
sI39
F0.0021316666666666667
sI40
F0.0026416666666666667
sI41
F0.00198
sI42
F0.0020883333333333335
sI43
F0.0023683333333333334
sI44
F0.0014166666666666668
sI45
F0.0018799999999999999
sI46
F0.0018400000000000001
sI47
F0.0014366666666666666
sI48
F0.0014733333333333334
sI49
F0.0023933333333333333
sI50
F0.001395
sI51
F0.0023416666666666668
sI52
F0.0013699999999999999
sI53
F0.0021616666666666668
sI54
F0.0018766666666666667
sI55
F0.0014649999999999999
sI56
F0.0026066666666666669
sI57
F0.0019733333333333334
sI58
F0.0022300000000000002
sI59
F0.0014416666666666666
sI60
F0.0013383333333333333
sI61
F0.0018566666666666666
sI62
F0.0016333333333333334
sI63
F0.0014116666666666668
sI64
F0.0039466666666666669
sI65
F0.0030216666666666669
sI66
F0.0034433333333333334
sI67
F0.0013799999999999999
sI68
F0.0031666666666666666
sI69
F0.0014016666666666667
sI70
F0.0038716666666666665
sI71
F0.0019400000000000001
sI72
F0.0025850000000000001
sI73
F0.0013616666666666666
sI74
F0.0014033333333333333
sI75
F0.0013883333333333334
sI76
F0.0014283333333333333
sI77
F0.0020633333333333333
sI78
F0.0013799999999999999
sI79
F0.0013233333333333333
sI80
F0.0023966666666666667
sI81
F0.0020950000000000001
sI82
F0.0014216666666666666
sI83
F0.0013649999999999999
sI84
F0.0021549999999999998
sI85
F0.00191
sI86
F0.00149
sI87
F0.0017633333333333333
sI88
F0.0024816666666666667
sI89
F0.0014733333333333334
sI90
F0.0019016666666666667
sI91
F0.0013333333333333333
sI92
F0.0022116666666666665
sI93
F0.0017383333333333333
sI94
F0.0013799999999999999
sI95
F0.0017083333333333334
sI96
F0.0013083333333333334
sI97
F0.0014833333333333332
sI98
F0.0020766666666666668
sI99
F0.0013933333333333332
sI100
F0.0025633333333333333
sI101
F0.0027483333333333335
sI102
F0.001415
sI103
F0.0014383333333333333
sI104
F0.0023466666666666666
sI105
F0.0020300000000000001
sI106
F0.0022899999999999999
sI107
F0.0020316666666666669
sI108
F0.0014516666666666666
sI109
F0.001395
sI110
F0.0018916666666666667
sI111
F0.0014483333333333334
sI112
F0.0024250000000000001
sI113
F0.0013866666666666667
sI114
F0.0019449999999999999
sI115
F0.0020333333333333332
sI116
F0.0019016666666666667
sI117
F0.0019750000000000002
sI118
F0.0013633333333333334
sI119
F0.0014350000000000001
sI120
F0.0020116666666666668
sI121
F0.0014533333333333334
sI122
F0.0018866666666666667
sI123
F0.0020316666666666669
sI124
F0.0013066666666666667
sI125
F0.0013416666666666666
sI126
F0.0018016666666666667
sI127
F0.0016566666666666667
sI128
F0.0051149999999999998
sI129
F0.0028133333333333335
sI130
F0.0023566666666666666
sI131
F0.0013266666666666667
sI132
F0.0013483333333333333
sI133
F0.0014216666666666666
sI134
F0.0032016666666666665
sI135
F0.0020016666666666668
sI136
F0.0013383333333333333
sI137
F0.0013450000000000001
sI138
F0.0013966666666666667
sI139
F0.0013649999999999999
sI140
F0.0018583333333333334
sI141
F0.0021583333333333333
sI142
F0.0018333333333333333
sI143
F0.0014450000000000001
sI144
F0.0030316666666666665
sI145
F0.0028283333333333333
sI146
F0.0022383333333333335
sI147
F0.0019083333333333333
sI148
F0.0021050000000000001
sI149
F0.0019499999999999999
sI150
F0.0017983333333333334
sI151
F0.001815
sI152
F0.0022716666666666666
sI153
F0.0024233333333333333
sI154
F0.0019366666666666666
sI155
F0.001815
sI156
F0.0019566666666666665
sI157
F0.0017933333333333334
sI158
F0.0017683333333333333
sI159
F0.0013383333333333333
sI160
F0.0030883333333333331
sI161
F0.0022983333333333332
sI162
F0.0014
sI163
F0.0025699999999999998
sI164
F0.0033566666666666667
sI165
F0.0018133333333333332
sI166
F0.0014383333333333333
sI167
F0.0020766666666666668
sI168
F0.0023900000000000002
sI169
F0.0025566666666666667
sI170
F0.0035316666666666665
sI171
F0.0022750000000000001
sI172
F0.0026350000000000002
sI173
F0.001725
sI174
F0.0019416666666666666
sI175
F0.001805
sI176
F0.0025000000000000001
sI177
F0.0013216666666666667
sI178
F0.0023633333333333332
sI179
F0.002
sI180
F0.0014300000000000001
sI181
F0.0020083333333333333
sI182
F0.0019483333333333334
sI183
F0.0014
sI184
F0.0024083333333333335
sI185
F0.0013783333333333334
sI186
F0.0019599999999999999
sI187
F0.0014083333333333333
sI188
F0.0013233333333333333
sI189
F0.0014216666666666666
sI190
F0.001335
sI191
F0.001735
sI192
F0.0032933333333333334
sI193
F0.0013733333333333334
sI194
F0.0013633333333333334
sI195
F0.004535
sI196
F0.0020449999999999999
sI197
F0.0018633333333333334
sI198
F0.0014300000000000001
sI199
F0.0025850000000000001
sI200
F0.00139
sI201
F0.0025866666666666668
sI202
F0.003045
sI203
F0.0024416666666666666
sI204
F0.0013733333333333334
sI205
F0.0017583333333333333
sI206
F0.0018466666666666666
sI207
F0.0016983333333333334
sI208
F0.0024666666666666665
sI209
F0.0022383333333333335
sI210
F0.0014033333333333333
sI211
F0.0014416666666666666
sI212
F0.0014133333333333333
sI213
F0.0014483333333333334
sI214
F0.0020950000000000001
sI215
F0.0014466666666666666
sI216
F0.0025016666666666668
sI217
F0.0013916666666666667
sI218
F0.001475
sI219
F0.0017216666666666667
sI220
F0.0014216666666666666
sI221
F0.0016066666666666666
sI222
F0.0016299999999999999
sI223
F0.0017433333333333333
sI224
F0.00139
sI225
F0.0043699999999999998
sI226
F0.0019516666666666667
sI227
F0.00313
sI228
F0.0039783333333333337
sI229
F0.0023883333333333335
sI230
F0.0018316666666666668
sI231
F0.0019400000000000001
sI232
F0.0024666666666666665
sI233
F0.0013933333333333332
sI234
F0.0018933333333333332
sI235
F0.0014300000000000001
sI236
F0.0013766666666666667
sI237
F0.0018066666666666667
sI238
F0.0021533333333333335
sI239
F0.0016416666666666667
sI240
F0.00215
sI241
F0.0014549999999999999
sI242
F0.0014549999999999999
sI243
F0.00214
sI244
F0.0017883333333333334
sI245
F0.0018016666666666667
sI246
F0.0017049999999999999
sI247
F0.0017483333333333333
sI248
F0.0013733333333333334
sI249
F0.0013783333333333334
sI250
F0.0014016666666666667
sI251
F0.0016783333333333333
sI252
F0.0017866666666666667
sI253
F0.0021416666666666667
sI254
F0.0021483333333333333
sI255
F0.00172
sI256
F0.0013016666666666667
sI257
F0.0029616666666666667
sI258
F0.001395
sI259
F0.0013683333333333334
sI260
F0.0025133333333333331
sI261
F0.0014016666666666667
sI262
F0.0028333333333333335
sI263
F0.0018616666666666666
sI264
F0.0021866666666666666
sI265
F0.0019333333333333333
sI266
F0.0022483333333333335
sI267
F0.0019250000000000001
sI268
F0.002885
sI269
F0.00182
sI270
F0.0014483333333333334
sI271
F0.0018500000000000001
sI272
F0.0024566666666666665
sI273
F0.0012999999999999999
sI274
F0.0019516666666666667
sI275
F0.0017216666666666667
sI276
F0.0018766666666666667
sI277
F0.0020899999999999998
sI278
F0.0016516666666666667
sI279
F0.00191
sI280
F0.0020466666666666667
sI281
F0.0022216666666666665
sI282
F0.0020183333333333334
sI283
F0.0024833333333333335
sI284
F0.0019283333333333333
sI285
F0.0013450000000000001
sI286
F0.0019616666666666667
sI287
F0.0019683333333333332
sI288
F0.0013483333333333333
sI289
F0.0033616666666666669
sI290
F0.0013433333333333333
sI291
F0.0024650000000000002
sI292
F0.0021933333333333332
sI293
F0.0014583333333333334
sI294
F0.0015733333333333333
sI295
F0.0013966666666666667
sI296
F0.0013849999999999999
sI297
F0.0042233333333333333
sI298
F0.0013883333333333334
sI299
F0.0014300000000000001
sI300
F0.0019383333333333334
sI301
F0.0013600000000000001
sI302
F0.0016366666666666667
sI303
F0.0013433333333333333
sI304
F0.0029033333333333333
sI305
F0.0013500000000000001
sI306
F0.0018699999999999999
sI307
F0.00197
sI308
F0.0020466666666666667
sI309
F0.0014016666666666667
sI310
F0.0017966666666666667
sI311
F0.0015016666666666668
sI312
F0.0025799999999999998
sI313
F0.00216
sI314
F0.0023149999999999998
sI315
F0.001745
sI316
F0.00173
sI317
F0.001655
sI318
F0.0013699999999999999
sI319
F0.0013983333333333332
sI320
F0.0027766666666666669
sI321
F0.001495
sI322
F0.0026566666666666666
ssg649
F0.62244166666666667
sstp656
a(g11
(tRp657
S'workload'
p658
g11
(tRp659
S'n_contents'
p660
I30000
sS'rank_per_group'
p661
F16
sS'name'
p662
S'DIFFRANK'
p663
sS'n_warmup'
p664
I60000
sS'rate'
p665
F300
sS'n_measured'
p666
I600000
sS'alpha'
p667
F1
sS'n_rank'
p668
I32
ssS'cache_policy'
p669
g11
(tRp670
g662
S'LRU'
p671
ssS'strategy'
p672
g11
(tRp673
g662
S'NRR'
p674
ssS'content_placement'
p675
g11
(tRp676
g662
S'UNIFORM'
p677
ssS'cache_placement'
p678
g11
(tRp679
S'network_cache'
p680
F0.10000000000000001
sg662
g677
ssS'desc'
p681
S'Alpha: 1.0, strategy: NRR,  network cache: 0.1, topology: Datacenter,  num of datastore: 1, group size: 160. '
p682
sS'topology'
p683
g11
(tRp684
S'n_node'
p685
I320
sS'n_datastore'
p686
I1
sg662
S'DATACENTER'
p687
sS'n_member'
p688
I160
ssg11
(tRp689
S'LATENCY'
p690
g11
(tRp691
S'MEAN'
p692
F41.971640000000001
ssS'CACHE_HIT_RATIO'
p693
g11
(tRp694
S'PER_NODE_SERVER_HIT_RATIO'
p695
g11
(tRp696
I0
F0.37521833333333332
ssS'PER_NODE_CACHE_HIT_RATIO'
p697
g11
(tRp698
I3
F0.0036983333333333334
sI4
F0.0014166666666666668
sI5
F0.0027533333333333333
sI6
F0.0022333333333333333
sI7
F0.0018866666666666667
sI8
F0.0025999999999999999
sI9
F0.0013716666666666667
sI10
F0.0013616666666666666
sI11
F0.0013583333333333334
sI12
F0.0016199999999999999
sI13
F0.0020999999999999999
sI14
F0.0021333333333333334
sI15
F0.001655
sI16
F0.0025433333333333332
sI17
F0.0014183333333333333
sI18
F0.0025400000000000002
sI19
F0.0018383333333333333
sI20
F0.0018733333333333334
sI21
F0.0018033333333333334
sI22
F0.0013799999999999999
sI23
F0.0013799999999999999
sI24
F0.0024083333333333335
sI25
F0.0022100000000000002
sI26
F0.0020899999999999998
sI27
F0.0014033333333333333
sI28
F0.0018133333333333332
sI29
F0.0019016666666666667
sI30
F0.0016199999999999999
sI31
F0.0019466666666666666
sI32
F0.0013733333333333334
sI33
F0.0046600000000000001
sI34
F0.0014716666666666667
sI35
F0.0023616666666666669
sI36
F0.001305
sI37
F0.0013649999999999999
sI38
F0.0042100000000000002
sI39
F0.0022000000000000001
sI40
F0.0031183333333333332
sI41
F0.0031616666666666668
sI42
F0.0022866666666666669
sI43
F0.0021466666666666665
sI44
F0.0019366666666666666
sI45
F0.0022283333333333335
sI46
F0.0018833333333333334
sI47
F0.0018783333333333334
sI48
F0.0014599999999999999
sI49
F0.0021966666666666666
sI50
F0.0013749999999999999
sI51
F0.0021050000000000001
sI52
F0.0013816666666666667
sI53
F0.0018683333333333334
sI54
F0.00173
sI55
F0.0016900000000000001
sI56
F0.0024499999999999999
sI57
F0.0013666666666666666
sI58
F0.0013416666666666666
sI59
F0.0021233333333333334
sI60
F0.002055
sI61
F0.0014016666666666667
sI62
F0.001415
sI63
F0.0013933333333333332
sI64
F0.0027916666666666667
sI65
F0.0040833333333333329
sI66
F0.00149
sI67
F0.00141
sI68
F0.0015466666666666667
sI69
F0.0013916666666666667
sI70
F0.00189
sI71
F0.00172
sI72
F0.0028066666666666665
sI73
F0.0022033333333333332
sI74
F0.0021616666666666668
sI75
F0.0019516666666666667
sI76
F0.0021666666666666666
sI77
F0.0013749999999999999
sI78
F0.0017266666666666667
sI79
F0.0019816666666666667
sI80
F0.0022933333333333334
sI81
F0.0013866666666666667
sI82
F0.0022616666666666666
sI83
F0.001395
sI84
F0.0013699999999999999
sI85
F0.0019400000000000001
sI86
F0.0016783333333333333
sI87
F0.00133
sI88
F0.0024833333333333335
sI89
F0.0022683333333333331
sI90
F0.0014416666666666666
sI91
F0.0019816666666666667
sI92
F0.0017583333333333333
sI93
F0.0014766666666666667
sI94
F0.0013699999999999999
sI95
F0.0018533333333333334
sI96
F0.0013233333333333333
sI97
F0.002395
sI98
F0.00332
sI99
F0.0013566666666666666
sI100
F0.0026783333333333333
sI101
F0.001405
sI102
F0.0013600000000000001
sI103
F0.0014450000000000001
sI104
F0.0024483333333333332
sI105
F0.0014300000000000001
sI106
F0.0014716666666666667
sI107
F0.0019650000000000002
sI108
F0.0020083333333333333
sI109
F0.0021166666666666669
sI110
F0.0013133333333333332
sI111
F0.0014350000000000001
sI112
F0.0025249999999999999
sI113
F0.0020100000000000001
sI114
F0.0020783333333333335
sI115
F0.0020400000000000001
sI116
F0.0017516666666666666
sI117
F0.0019983333333333333
sI118
F0.001395
sI119
F0.0016999999999999999
sI120
F0.0013666666666666666
sI121
F0.0018866666666666667
sI122
F0.0018783333333333334
sI123
F0.0013966666666666667
sI124
F0.00181
sI125
F0.00197
sI126
F0.0014683333333333334
sI127
F0.0013783333333333334
sI128
F0.0014883333333333333
sI129
F0.00141
sI130
F0.0022416666666666665
sI131
F0.0026516666666666668
sI132
F0.0013600000000000001
sI133
F0.00189
sI134
F0.0017750000000000001
sI135
F0.0045799999999999999
sI136
F0.0023400000000000001
sI137
F0.0013883333333333334
sI138
F0.0025249999999999999
sI139
F0.0030583333333333335
sI140
F0.00132
sI141
F0.0022899999999999999
sI142
F0.0017866666666666667
sI143
F0.0013716666666666667
sI144
F0.0013916666666666667
sI145
F0.0021849999999999999
sI146
F0.0020100000000000001
sI147
F0.0014766666666666667
sI148
F0.0019250000000000001
sI149
F0.001725
sI150
F0.0016816666666666666
sI151
F0.0016916666666666666
sI152
F0.0022133333333333332
sI153
F0.0013500000000000001
sI154
F0.0020216666666666668
sI155
F0.002225
sI156
F0.0024133333333333333
sI157
F0.0019833333333333335
sI158
F0.0014599999999999999
sI159
F0.0014016666666666667
sI160
F0.0045216666666666669
sI161
F0.0013600000000000001
sI162
F0.0040216666666666664
sI163
F0.0020633333333333333
sI164
F0.0024383333333333332
sI165
F0.0020816666666666666
sI166
F0.0013849999999999999
sI167
F0.0036683333333333333
sI168
F0.0014083333333333333
sI169
F0.0031733333333333331
sI170
F0.0020933333333333333
sI171
F0.0020533333333333332
sI172
F0.0019133333333333333
sI173
F0.0017516666666666666
sI174
F0.0012999999999999999
sI175
F0.0017949999999999999
sI176
F0.0025616666666666665
sI177
F0.0024716666666666667
sI178
F0.0013633333333333334
sI179
F0.00198
sI180
F0.0017216666666666667
sI181
F0.0018533333333333334
sI182
F0.0015766666666666668
sI183
F0.0013483333333333333
sI184
F0.0024849999999999998
sI185
F0.0023016666666666667
sI186
F0.0014300000000000001
sI187
F0.001475
sI188
F0.0017933333333333334
sI189
F0.0017416666666666668
sI190
F0.0018933333333333332
sI191
F0.0017099999999999999
sI192
F0.0052066666666666667
sI193
F0.0028800000000000002
sI194
F0.0014133333333333333
sI195
F0.0022000000000000001
sI196
F0.0034849999999999998
sI197
F0.00142
sI198
F0.0035716666666666666
sI199
F0.00192
sI200
F0.0027716666666666666
sI201
F0.0027399999999999998
sI202
F0.0014166666666666668
sI203
F0.0019949999999999998
sI204
F0.0014383333333333333
sI205
F0.0013849999999999999
sI206
F0.0013450000000000001
sI207
F0.0017566666666666666
sI208
F0.0026099999999999999
sI209
F0.0018433333333333333
sI210
F0.0023649999999999999
sI211
F0.0014033333333333333
sI212
F0.0020233333333333331
sI213
F0.0025616666666666665
sI214
F0.0021849999999999999
sI215
F0.0017866666666666667
sI216
F0.0025333333333333332
sI217
F0.0014383333333333333
sI218
F0.0020166666666666666
sI219
F0.0022616666666666666
sI220
F0.0017283333333333332
sI221
F0.0014083333333333333
sI222
F0.0016516666666666667
sI223
F0.0014033333333333333
sI224
F0.005123333333333333
sI225
F0.0023833333333333332
sI226
F0.0013766666666666667
sI227
F0.0021266666666666665
sI228
F0.0013766666666666667
sI229
F0.0017566666666666666
sI230
F0.0018600000000000001
sI231
F0.0026316666666666667
sI232
F0.0013266666666666667
sI233
F0.0013583333333333334
sI234
F0.0014133333333333333
sI235
F0.0024383333333333332
sI236
F0.0014083333333333333
sI237
F0.0014766666666666667
sI238
F0.0017833333333333334
sI239
F0.0018383333333333333
sI240
F0.001395
sI241
F0.0027633333333333334
sI242
F0.00139
sI243
F0.0020883333333333335
sI244
F0.0013833333333333334
sI245
F0.0014166666666666668
sI246
F0.0013583333333333334
sI247
F0.0019283333333333333
sI248
F0.0013416666666666666
sI249
F0.0020983333333333331
sI250
F0.0013866666666666667
sI251
F0.0019066666666666668
sI252
F0.0018649999999999999
sI253
F0.0016833333333333333
sI254
F0.0016483333333333332
sI255
F0.00142
sI256
F0.003065
sI257
F0.0032733333333333334
sI258
F0.0022216666666666665
sI259
F0.0013783333333333334
sI260
F0.0020133333333333331
sI261
F0.0012833333333333334
sI262
F0.0018616666666666666
sI263
F0.0026549999999999998
sI264
F0.0023266666666666666
sI265
F0.0014516666666666666
sI266
F0.0019650000000000002
sI267
F0.0013733333333333334
sI268
F0.0013866666666666667
sI269
F0.0025416666666666665
sI270
F0.0016783333333333333
sI271
F0.0019499999999999999
sI272
F0.0013933333333333332
sI273
F0.00191
sI274
F0.0023050000000000002
sI275
F0.0014083333333333333
sI276
F0.0022216666666666665
sI277
F0.0018333333333333333
sI278
F0.0013666666666666666
sI279
F0.0021966666666666666
sI280
F0.0021800000000000001
sI281
F0.0023333333333333335
sI282
F0.0014216666666666666
sI283
F0.001395
sI284
F0.0021749999999999999
sI285
F0.001755
sI286
F0.0014016666666666667
sI287
F0.0014583333333333334
sI288
F0.0013733333333333334
sI289
F0.0030533333333333332
sI290
F0.00131
sI291
F0.0031216666666666667
sI292
F0.0013799999999999999
sI293
F0.0014166666666666668
sI294
F0.0014133333333333333
sI295
F0.001555
sI296
F0.0023816666666666665
sI297
F0.0023316666666666668
sI298
F0.0013483333333333333
sI299
F0.0018500000000000001
sI300
F0.0022666666666666668
sI301
F0.00172
sI302
F0.002545
sI303
F0.003075
sI304
F0.0026916666666666669
sI305
F0.0014033333333333333
sI306
F0.0019483333333333334
sI307
F0.0013333333333333333
sI308
F0.0019949999999999998
sI309
F0.0019016666666666667
sI310
F0.0016850000000000001
sI311
F0.0013600000000000001
sI312
F0.0012916666666666667
sI313
F0.00197
sI314
F0.0015266666666666666
sI315
F0.0019666666666666665
sI316
F0.0023649999999999999
sI317
F0.0016316666666666667
sI318
F0.001815
sI319
F0.0016949999999999999
sI320
F0.0026016666666666666
sI321
F0.001335
sI322
F0.0022516666666666666
ssg692
F0.62478166666666668
sstp699
a(g11
(tRp700
S'workload'
p701
g11
(tRp702
S'n_contents'
p703
I30000
sS'rank_per_group'
p704
F32
sS'name'
p705
S'DIFFRANK'
p706
sS'n_warmup'
p707
I60000
sS'rate'
p708
F300
sS'n_measured'
p709
I600000
sS'alpha'
p710
F1
sS'n_rank'
p711
I32
ssS'cache_policy'
p712
g11
(tRp713
g705
S'LRU'
p714
ssS'strategy'
p715
g11
(tRp716
g705
S'NRR'
p717
ssS'content_placement'
p718
g11
(tRp719
g705
S'UNIFORM'
p720
ssS'cache_placement'
p721
g11
(tRp722
S'network_cache'
p723
F0.10000000000000001
sg705
g720
ssS'desc'
p724
S'Alpha: 1.0, strategy: NRR,  network cache: 0.1, topology: Datacenter,  num of datastore: 1, group size: 320. '
p725
sS'topology'
p726
g11
(tRp727
S'n_node'
p728
I320
sS'n_datastore'
p729
I1
sg705
S'DATACENTER'
p730
sS'n_member'
p731
I320
ssg11
(tRp732
S'LATENCY'
p733
g11
(tRp734
S'MEAN'
p735
F58.745293333333336
ssS'CACHE_HIT_RATIO'
p736
g11
(tRp737
S'PER_NODE_SERVER_HIT_RATIO'
p738
g11
(tRp739
I0
F0.55422333333333329
ssS'PER_NODE_CACHE_HIT_RATIO'
p740
g11
(tRp741
I2
F0.0013683333333333334
sI3
F0.0013799999999999999
sI4
F0.00148
sI5
F0.0013716666666666667
sI6
F0.0014033333333333333
sI7
F0.0013450000000000001
sI8
F0.0012849999999999999
sI9
F0.0013616666666666666
sI10
F0.0013816666666666667
sI11
F0.0014166666666666668
sI12
F0.0013783333333333334
sI13
F0.0013483333333333333
sI14
F0.0013533333333333333
sI15
F0.0014250000000000001
sI16
F0.001495
sI17
F0.001475
sI18
F0.0013666666666666666
sI19
F0.0014066666666666667
sI20
F0.0013433333333333333
sI21
F0.0013933333333333332
sI22
F0.0013849999999999999
sI23
F0.001405
sI24
F0.00132
sI25
F0.0013483333333333333
sI26
F0.0014133333333333333
sI27
F0.0013966666666666667
sI28
F0.0013450000000000001
sI29
F0.0013116666666666667
sI30
F0.0014333333333333333
sI31
F0.0013416666666666666
sI32
F0.0013699999999999999
sI33
F0.0013683333333333334
sI34
F0.0013383333333333333
sI35
F0.0013616666666666666
sI36
F0.0015349999999999999
sI37
F0.0013833333333333334
sI38
F0.0013383333333333333
sI39
F0.0014533333333333334
sI40
F0.0013266666666666667
sI41
F0.001395
sI42
F0.0013683333333333334
sI43
F0.0014483333333333334
sI44
F0.0013983333333333332
sI45
F0.0013316666666666668
sI46
F0.0014133333333333333
sI47
F0.00139
sI48
F0.0012866666666666666
sI49
F0.0014549999999999999
sI50
F0.0014483333333333334
sI51
F0.0014366666666666666
sI52
F0.0013216666666666667
sI53
F0.0012816666666666666
sI54
F0.0013849999999999999
sI55
F0.0015133333333333333
sI56
F0.0013116666666666667
sI57
F0.0014733333333333334
sI58
F0.0013766666666666667
sI59
F0.001395
sI60
F0.00141
sI61
F0.001315
sI62
F0.0014366666666666666
sI63
F0.001395
sI64
F0.0014666666666666667
sI65
F0.0014416666666666666
sI66
F0.0014433333333333334
sI67
F0.0014016666666666667
sI68
F0.0013533333333333333
sI69
F0.0013916666666666667
sI70
F0.0013550000000000001
sI71
F0.00131
sI72
F0.0013816666666666667
sI73
F0.0013216666666666667
sI74
F0.0013383333333333333
sI75
F0.0014066666666666667
sI76
F0.0013716666666666667
sI77
F0.0013966666666666667
sI78
F0.001495
sI79
F0.0014116666666666668
sI80
F0.0013699999999999999
sI81
F0.0013783333333333334
sI82
F0.0013633333333333334
sI83
F0.0013966666666666667
sI84
F0.0014599999999999999
sI85
F0.0014516666666666666
sI86
F0.00133
sI87
F0.0013666666666666666
sI88
F0.0012983333333333334
sI89
F0.0013649999999999999
sI90
F0.0013799999999999999
sI91
F0.0013633333333333334
sI92
F0.0013450000000000001
sI93
F0.0014816666666666667
sI94
F0.0014283333333333333
sI95
F0.0013066666666666667
sI96
F0.0014016666666666667
sI97
F0.0013666666666666666
sI98
F0.0014599999999999999
sI99
F0.0013699999999999999
sI100
F0.0014983333333333333
sI101
F0.0014166666666666668
sI102
F0.0013766666666666667
sI103
F0.0014433333333333334
sI104
F0.0012416666666666667
sI105
F0.00141
sI106
F0.00131
sI107
F0.0013566666666666666
sI108
F0.00141
sI109
F0.0014549999999999999
sI110
F0.001415
sI111
F0.0013166666666666667
sI112
F0.0014499999999999999
sI113
F0.0013749999999999999
sI114
F0.0012999999999999999
sI115
F0.001335
sI116
F0.001415
sI117
F0.001415
sI118
F0.0013166666666666667
sI119
F0.0013666666666666666
sI120
F0.0014266666666666666
sI121
F0.0013683333333333334
sI122
F0.001395
sI123
F0.0014549999999999999
sI124
F0.0014499999999999999
sI125
F0.0013583333333333334
sI126
F0.0013616666666666666
sI127
F0.00141
sI128
F0.0014416666666666666
sI129
F0.0014933333333333333
sI130
F0.0014416666666666666
sI131
F0.0014233333333333333
sI132
F0.0014233333333333333
sI133
F0.0014033333333333333
sI134
F0.0014400000000000001
sI135
F0.0013716666666666667
sI136
F0.0014683333333333334
sI137
F0.00134
sI138
F0.00132
sI139
F0.0013699999999999999
sI140
F0.0013816666666666667
sI141
F0.001315
sI142
F0.0013066666666666667
sI143
F0.0015250000000000001
sI144
F0.001395
sI145
F0.0014
sI146
F0.00132
sI147
F0.0013066666666666667
sI148
F0.0013666666666666666
sI149
F0.0014166666666666668
sI150
F0.0013849999999999999
sI151
F0.0014866666666666667
sI152
F0.0014566666666666667
sI153
F0.0013616666666666666
sI154
F0.0014666666666666667
sI155
F0.0014366666666666666
sI156
F0.0014166666666666668
sI157
F0.0012999999999999999
sI158
F0.0013433333333333333
sI159
F0.0014083333333333333
sI160
F0.001395
sI161
F0.0013550000000000001
sI162
F0.0013766666666666667
sI163
F0.0013833333333333334
sI164
F0.00141
sI165
F0.0013766666666666667
sI166
F0.0013133333333333332
sI167
F0.0014516666666666666
sI168
F0.0014583333333333334
sI169
F0.0013433333333333333
sI170
F0.0013733333333333334
sI171
F0.0014666666666666667
sI172
F0.001395
sI173
F0.0013333333333333333
sI174
F0.0014066666666666667
sI175
F0.0013766666666666667
sI176
F0.0013666666666666666
sI177
F0.0014433333333333334
sI178
F0.0012733333333333333
sI179
F0.0014016666666666667
sI180
F0.0012933333333333334
sI181
F0.0013983333333333332
sI182
F0.0014083333333333333
sI183
F0.0013533333333333333
sI184
F0.0013816666666666667
sI185
F0.0013699999999999999
sI186
F0.0013783333333333334
sI187
F0.0013266666666666667
sI188
F0.0013233333333333333
sI189
F0.0014216666666666666
sI190
F0.0014416666666666666
sI191
F0.0014883333333333333
sI192
F0.0014916666666666667
sI193
F0.0014
sI194
F0.0013383333333333333
sI195
F0.0014016666666666667
sI196
F0.0013383333333333333
sI197
F0.0013833333333333334
sI198
F0.0014216666666666666
sI199
F0.0013966666666666667
sI200
F0.0014366666666666666
sI201
F0.0013683333333333334
sI202
F0.0014983333333333333
sI203
F0.00132
sI204
F0.0013516666666666666
sI205
F0.0013766666666666667
sI206
F0.0013799999999999999
sI207
F0.0014766666666666667
sI208
F0.0013766666666666667
sI209
F0.0013783333333333334
sI210
F0.0014250000000000001
sI211
F0.0014933333333333333
sI212
F0.0013666666666666666
sI213
F0.0014
sI214
F0.0013550000000000001
sI215
F0.0013783333333333334
sI216
F0.0014433333333333334
sI217
F0.00139
sI218
F0.0013583333333333334
sI219
F0.0013566666666666666
sI220
F0.0014450000000000001
sI221
F0.00141
sI222
F0.0013966666666666667
sI223
F0.0015
sI224
F0.0014233333333333333
sI225
F0.0014433333333333334
sI226
F0.0014283333333333333
sI227
F0.0013749999999999999
sI228
F0.0015183333333333333
sI229
F0.0013799999999999999
sI230
F0.0015200000000000001
sI231
F0.0013783333333333334
sI232
F0.0013966666666666667
sI233
F0.0014616666666666667
sI234
F0.0014183333333333333
sI235
F0.0013166666666666667
sI236
F0.0014016666666666667
sI237
F0.001325
sI238
F0.0014233333333333333
sI239
F0.00131
sI240
F0.0014166666666666668
sI241
F0.0014283333333333333
sI242
F0.0013799999999999999
sI243
F0.001415
sI244
F0.00141
sI245
F0.0014083333333333333
sI246
F0.0013816666666666667
sI247
F0.0014716666666666667
sI248
F0.0013666666666666666
sI249
F0.0014283333333333333
sI250
F0.0013433333333333333
sI251
F0.0013566666666666666
sI252
F0.0014433333333333334
sI253
F0.0013633333333333334
sI254
F0.0013649999999999999
sI255
F0.0013766666666666667
sI256
F0.0013183333333333332
sI257
F0.0012933333333333334
sI258
F0.0013766666666666667
sI259
F0.00141
sI260
F0.0014
sI261
F0.0013500000000000001
sI262
F0.001475
sI263
F0.0014033333333333333
sI264
F0.0013383333333333333
sI265
F0.0013766666666666667
sI266
F0.0014183333333333333
sI267
F0.001405
sI268
F0.0014883333333333333
sI269
F0.0013383333333333333
sI270
F0.0013566666666666666
sI271
F0.0013716666666666667
sI272
F0.0014400000000000001
sI273
F0.0013500000000000001
sI274
F0.001335
sI275
F0.0014133333333333333
sI276
F0.0013983333333333332
sI277
F0.0013533333333333333
sI278
F0.0013233333333333333
sI279
F0.0014316666666666666
sI280
F0.0013749999999999999
sI281
F0.0013516666666666666
sI282
F0.0014716666666666667
sI283
F0.0013600000000000001
sI284
F0.0013616666666666666
sI285
F0.0013600000000000001
sI286
F0.001495
sI287
F0.0014866666666666667
sI288
F0.0014583333333333334
sI289
F0.0013566666666666666
sI290
F0.001315
sI291
F0.0013066666666666667
sI292
F0.0013799999999999999
sI293
F0.00139
sI294
F0.001415
sI295
F0.0014499999999999999
sI296
F0.0013450000000000001
sI297
F0.0014366666666666666
sI298
F0.0014416666666666666
sI299
F0.0013716666666666667
sI300
F0.0014350000000000001
sI301
F0.0014266666666666666
sI302
F0.0014116666666666668
sI303
F0.0013983333333333332
sI304
F0.0014383333333333333
sI305
F0.00141
sI306
F0.00147
sI307
F0.0014483333333333334
sI308
F0.0014166666666666668
sI309
F0.001415
sI310
F0.0014916666666666667
sI311
F0.001395
sI312
F0.0014649999999999999
sI313
F0.0013699999999999999
sI314
F0.0014633333333333334
sI315
F0.001315
sI316
F0.0014733333333333334
sI317
F0.0013483333333333333
sI318
F0.0014
sI319
F0.00133
sI320
F0.0014400000000000001
sI321
F0.0014183333333333333
ssg735
F0.44577666666666665
sstp742
a(g11
(tRp743
S'workload'
p744
g11
(tRp745
S'n_contents'
p746
I30000
sS'rank_per_group'
p747
F32
sS'name'
p748
S'DIFFRANK'
p749
sS'n_warmup'
p750
I60000
sS'rate'
p751
F300
sS'n_measured'
p752
I600000
sS'alpha'
p753
F1
sS'n_rank'
p754
I32
ssS'cache_policy'
p755
g11
(tRp756
g748
S'LRU'
p757
ssS'strategy'
p758
g11
(tRp759
g748
S'NRR'
p760
ssS'content_placement'
p761
g11
(tRp762
g748
S'UNIFORM'
p763
ssS'cache_placement'
p764
g11
(tRp765
S'network_cache'
p766
F0.10000000000000001
sg748
g763
ssS'desc'
p767
S'Alpha: 1.0, strategy: NRR,  network cache: 0.1, topology: Datacenter,  num of datastore: 1, group size: 320. '
p768
sS'topology'
p769
g11
(tRp770
S'n_node'
p771
I320
sS'n_datastore'
p772
I1
sg748
S'DATACENTER'
p773
sS'n_member'
p774
I320
ssg11
(tRp775
S'LATENCY'
p776
g11
(tRp777
S'MEAN'
p778
F58.415579999999999
ssS'CACHE_HIT_RATIO'
p779
g11
(tRp780
S'PER_NODE_SERVER_HIT_RATIO'
p781
g11
(tRp782
I0
F0.55342333333333338
ssS'PER_NODE_CACHE_HIT_RATIO'
p783
g11
(tRp784
I2
F0.0014266666666666666
sI3
F0.001475
sI4
F0.00139
sI5
F0.0014133333333333333
sI6
F0.0013749999999999999
sI7
F0.0014216666666666666
sI8
F0.0013583333333333334
sI9
F0.001405
sI10
F0.00132
sI11
F0.001395
sI12
F0.0013816666666666667
sI13
F0.0013799999999999999
sI14
F0.0013699999999999999
sI15
F0.0013716666666666667
sI16
F0.0014183333333333333
sI17
F0.0014250000000000001
sI18
F0.0014533333333333334
sI19
F0.00141
sI20
F0.0013183333333333332
sI21
F0.0014433333333333334
sI22
F0.0013633333333333334
sI23
F0.0013766666666666667
sI24
F0.0014316666666666666
sI25
F0.0014400000000000001
sI26
F0.0013450000000000001
sI27
F0.0013333333333333333
sI28
F0.0013483333333333333
sI29
F0.0014383333333333333
sI30
F0.0014433333333333334
sI31
F0.0014933333333333333
sI32
F0.0012800000000000001
sI33
F0.0013666666666666666
sI34
F0.0014666666666666667
sI35
F0.0014
sI36
F0.001395
sI37
F0.00134
sI38
F0.0014416666666666666
sI39
F0.0013749999999999999
sI40
F0.001305
sI41
F0.0014016666666666667
sI42
F0.001475
sI43
F0.00148
sI44
F0.0014266666666666666
sI45
F0.0014466666666666666
sI46
F0.0014166666666666668
sI47
F0.0012999999999999999
sI48
F0.0014549999999999999
sI49
F0.00149
sI50
F0.0014133333333333333
sI51
F0.0014266666666666666
sI52
F0.0012966666666666667
sI53
F0.0014166666666666668
sI54
F0.0014016666666666667
sI55
F0.0013799999999999999
sI56
F0.0013733333333333334
sI57
F0.0014716666666666667
sI58
F0.0013550000000000001
sI59
F0.0013450000000000001
sI60
F0.0013233333333333333
sI61
F0.0013983333333333332
sI62
F0.0013933333333333332
sI63
F0.0013766666666666667
sI64
F0.0014216666666666666
sI65
F0.0013983333333333332
sI66
F0.0014516666666666666
sI67
F0.0013883333333333334
sI68
F0.0014416666666666666
sI69
F0.0014583333333333334
sI70
F0.0014183333333333333
sI71
F0.0013016666666666667
sI72
F0.0014133333333333333
sI73
F0.0015299999999999999
sI74
F0.0014233333333333333
sI75
F0.0013866666666666667
sI76
F0.0013849999999999999
sI77
F0.0013683333333333334
sI78
F0.0014716666666666667
sI79
F0.0014966666666666668
sI80
F0.001315
sI81
F0.0013799999999999999
sI82
F0.0014083333333333333
sI83
F0.0014183333333333333
sI84
F0.00142
sI85
F0.0014083333333333333
sI86
F0.0013283333333333333
sI87
F0.00139
sI88
F0.0014183333333333333
sI89
F0.0012700000000000001
sI90
F0.0014133333333333333
sI91
F0.001415
sI92
F0.0014066666666666667
sI93
F0.0015133333333333333
sI94
F0.0014583333333333334
sI95
F0.0013933333333333332
sI96
F0.0013816666666666667
sI97
F0.0013466666666666666
sI98
F0.0014433333333333334
sI99
F0.0014450000000000001
sI100
F0.0013799999999999999
sI101
F0.00142
sI102
F0.0013533333333333333
sI103
F0.0014499999999999999
sI104
F0.0013933333333333332
sI105
F0.0013383333333333333
sI106
F0.0013883333333333334
sI107
F0.0014016666666666667
sI108
F0.0013433333333333333
sI109
F0.0013500000000000001
sI110
F0.0014533333333333334
sI111
F0.0013633333333333334
sI112
F0.001415
sI113
F0.0014616666666666667
sI114
F0.0014883333333333333
sI115
F0.0013716666666666667
sI116
F0.0014233333333333333
sI117
F0.0014116666666666668
sI118
F0.0013699999999999999
sI119
F0.0015016666666666668
sI120
F0.0014683333333333334
sI121
F0.001395
sI122
F0.0013983333333333332
sI123
F0.0013633333333333334
sI124
F0.0014166666666666668
sI125
F0.0013649999999999999
sI126
F0.0014
sI127
F0.0013266666666666667
sI128
F0.001475
sI129
F0.0014533333333333334
sI130
F0.0013316666666666668
sI131
F0.0013749999999999999
sI132
F0.0013733333333333334
sI133
F0.0013933333333333332
sI134
F0.0014416666666666666
sI135
F0.0014216666666666666
sI136
F0.0014433333333333334
sI137
F0.0014083333333333333
sI138
F0.001405
sI139
F0.0013816666666666667
sI140
F0.0014066666666666667
sI141
F0.0014333333333333333
sI142
F0.0013683333333333334
sI143
F0.0013683333333333334
sI144
F0.0013649999999999999
sI145
F0.0014633333333333334
sI146
F0.0013533333333333333
sI147
F0.00133
sI148
F0.0013783333333333334
sI149
F0.0015133333333333333
sI150
F0.001485
sI151
F0.0015100000000000001
sI152
F0.0013616666666666666
sI153
F0.0013483333333333333
sI154
F0.0012700000000000001
sI155
F0.0014366666666666666
sI156
F0.00142
sI157
F0.0014533333333333334
sI158
F0.00133
sI159
F0.0014350000000000001
sI160
F0.0013666666666666666
sI161
F0.0013799999999999999
sI162
F0.0013749999999999999
sI163
F0.0014183333333333333
sI164
F0.0014033333333333333
sI165
F0.0014183333333333333
sI166
F0.0013716666666666667
sI167
F0.0013033333333333334
sI168
F0.0014116666666666668
sI169
F0.0012816666666666666
sI170
F0.0013600000000000001
sI171
F0.0013866666666666667
sI172
F0.0014266666666666666
sI173
F0.0013083333333333334
sI174
F0.0013716666666666667
sI175
F0.0014166666666666668
sI176
F0.0013833333333333334
sI177
F0.0014316666666666666
sI178
F0.0013983333333333332
sI179
F0.0014166666666666668
sI180
F0.0013799999999999999
sI181
F0.0013550000000000001
sI182
F0.0014216666666666666
sI183
F0.0015016666666666668
sI184
F0.0013699999999999999
sI185
F0.0014266666666666666
sI186
F0.0014666666666666667
sI187
F0.0013533333333333333
sI188
F0.0013316666666666668
sI189
F0.0013849999999999999
sI190
F0.0013649999999999999
sI191
F0.0014033333333333333
sI192
F0.00131
sI193
F0.0014400000000000001
sI194
F0.0014266666666666666
sI195
F0.0013799999999999999
sI196
F0.0013766666666666667
sI197
F0.0014266666666666666
sI198
F0.0013166666666666667
sI199
F0.0014766666666666667
sI200
F0.0014083333333333333
sI201
F0.0013466666666666666
sI202
F0.0014616666666666667
sI203
F0.0015216666666666666
sI204
F0.0013833333333333334
sI205
F0.001405
sI206
F0.0013033333333333334
sI207
F0.0014083333333333333
sI208
F0.0013016666666666667
sI209
F0.001305
sI210
F0.0013500000000000001
sI211
F0.0014433333333333334
sI212
F0.0014583333333333334
sI213
F0.0014016666666666667
sI214
F0.0014216666666666666
sI215
F0.0013783333333333334
sI216
F0.0013483333333333333
sI217
F0.0014133333333333333
sI218
F0.0014116666666666668
sI219
F0.0013766666666666667
sI220
F0.0012983333333333334
sI221
F0.0014250000000000001
sI222
F0.00142
sI223
F0.0013766666666666667
sI224
F0.0014499999999999999
sI225
F0.0013433333333333333
sI226
F0.0013749999999999999
sI227
F0.0013866666666666667
sI228
F0.00141
sI229
F0.0013983333333333332
sI230
F0.0013916666666666667
sI231
F0.0014533333333333334
sI232
F0.0014166666666666668
sI233
F0.0014016666666666667
sI234
F0.0014233333333333333
sI235
F0.0014183333333333333
sI236
F0.0013733333333333334
sI237
F0.00134
sI238
F0.0013616666666666666
sI239
F0.0014016666666666667
sI240
F0.0014400000000000001
sI241
F0.0013366666666666666
sI242
F0.00149
sI243
F0.00142
sI244
F0.0014566666666666667
sI245
F0.0013483333333333333
sI246
F0.0014300000000000001
sI247
F0.0014066666666666667
sI248
F0.001395
sI249
F0.0014466666666666666
sI250
F0.0014183333333333333
sI251
F0.0013433333333333333
sI252
F0.00131
sI253
F0.0013983333333333332
sI254
F0.0013500000000000001
sI255
F0.0013733333333333334
sI256
F0.0013683333333333334
sI257
F0.0013483333333333333
sI258
F0.0014016666666666667
sI259
F0.0013833333333333334
sI260
F0.0013683333333333334
sI261
F0.0013716666666666667
sI262
F0.0014183333333333333
sI263
F0.0015150000000000001
sI264
F0.0013849999999999999
sI265
F0.0014866666666666667
sI266
F0.0014549999999999999
sI267
F0.0013583333333333334
sI268
F0.0013983333333333332
sI269
F0.00139
sI270
F0.0013783333333333334
sI271
F0.0014083333333333333
sI272
F0.0013633333333333334
sI273
F0.0013683333333333334
sI274
F0.00134
sI275
F0.0013333333333333333
sI276
F0.0014083333333333333
sI277
F0.0013716666666666667
sI278
F0.0012833333333333334
sI279
F0.0014066666666666667
sI280
F0.0014233333333333333
sI281
F0.0014233333333333333
sI282
F0.0013316666666666668
sI283
F0.0013550000000000001
sI284
F0.0013016666666666667
sI285
F0.0014833333333333332
sI286
F0.0013849999999999999
sI287
F0.0013183333333333332
sI288
F0.0014716666666666667
sI289
F0.0013766666666666667
sI290
F0.0014233333333333333
sI291
F0.0013600000000000001
sI292
F0.0013816666666666667
sI293
F0.0014483333333333334
sI294
F0.0013683333333333334
sI295
F0.0013516666666666666
sI296
F0.0014083333333333333
sI297
F0.0014283333333333333
sI298
F0.0013833333333333334
sI299
F0.0013466666666666666
sI300
F0.00139
sI301
F0.0014516666666666666
sI302
F0.0013133333333333332
sI303
F0.0014416666666666666
sI304
F0.0013600000000000001
sI305
F0.0013333333333333333
sI306
F0.0012999999999999999
sI307
F0.0014
sI308
F0.001305
sI309
F0.0013933333333333332
sI310
F0.0013683333333333334
sI311
F0.0013849999999999999
sI312
F0.0012600000000000001
sI313
F0.00139
sI314
F0.0015416666666666667
sI315
F0.0013916666666666667
sI316
F0.001325
sI317
F0.00141
sI318
F0.0013966666666666667
sI319
F0.0014350000000000001
sI320
F0.0013516666666666666
sI321
F0.0014616666666666667
ssg778
F0.44657666666666668
sstp785
atRp786
sb.