ccopy_reg
_reconstructor
p1
(cicarus.results.readwrite
ResultSet
p2
c__builtin__
object
p3
NtRp4
(dp5
S'attr'
p6
(dp7
sS'_results'
p8
ccollections
deque
p9
((lp10
(cicarus.util
Tree
p11
(tRp12
S'workload'
p13
g11
(tRp14
S'n_contents'
p15
I30000
sS'rank_per_group'
p16
I1
sS'name'
p17
S'DIFFRANK'
p18
sS'n_warmup'
p19
I60000
sS'rate'
p20
F300
sS'n_measured'
p21
I600000
sS'alpha'
p22
F1
sS'n_rank'
p23
I32
ssS'group'
p24
g11
(tRp25
g17
S'GROUP'
p26
ssS'cache_policy'
p27
g11
(tRp28
g17
S'LRU'
p29
ssS'content_placement'
p30
g11
(tRp31
g17
S'UNIFORM'
p32
ssS'strategy'
p33
g11
(tRp34
g17
S'NRR'
p35
ssS'rankgroup'
p36
g11
(tRp37
g17
S'32,GROUP'
p38
ssS'cache_placement'
p39
g11
(tRp40
S'network_cache'
p41
F0.01
sg17
g32
ssS'desc'
p42
S'Alpha: 1.0, strategy: NRR,  network cache: 0.01, topology: Edgefog, num of datastore: 1, rank&group: 32,GROUP. '
p43
sS'topology'
p44
g11
(tRp45
S'n_node'
p46
I320
sS'n_datastore'
p47
I1
sg17
S'EDGEFOG'
p48
sS'n_member'
p49
I10
ssg11
(tRp50
S'LATENCY'
p51
g11
(tRp52
S'MEAN'
p53
F48.289340000000003
ssS'CACHE_HIT_RATIO'
p54
g11
(tRp55
S'PER_NODE_SERVER_HIT_RATIO'
p56
g11
(tRp57
I0
F0.58608833333333332
ssS'PER_NODE_CACHE_HIT_RATIO'
p58
g11
(tRp59
I33
F0.00282
sI34
F0.0014466666666666666
sI35
F0.0010399999999999999
sI36
F0.00096500000000000004
sI37
F0.00089666666666666671
sI38
F0.00091333333333333338
sI39
F0.00084833333333333332
sI40
F0.0018133333333333332
sI41
F0.0012833333333333334
sI42
F0.0010783333333333333
sI43
F0.0024516666666666667
sI44
F0.0011416666666666667
sI45
F0.00094666666666666662
sI46
F0.00095166666666666663
sI47
F0.00091666666666666665
sI48
F0.00189
sI49
F0.0015066666666666666
sI50
F0.0012233333333333334
sI51
F0.00117
sI52
F0.0010883333333333333
sI53
F0.0024816666666666667
sI54
F0.0012216666666666667
sI55
F0.0010366666666666666
sI56
F0.00067833333333333331
sI57
F0.0018316666666666668
sI58
F0.00058500000000000002
sI59
F0.0014883333333333333
sI60
F0.00060999999999999997
sI61
F0.00069666666666666661
sI62
F0.0012133333333333334
sI63
F0.00091666666666666665
sI64
F0.00070833333333333338
sI65
F0.0028616666666666669
sI66
F0.0013866666666666667
sI67
F0.001175
sI68
F0.0011033333333333333
sI69
F0.0010683333333333332
sI70
F0.00068166666666666668
sI71
F0.00095500000000000001
sI72
F0.0018183333333333333
sI73
F0.0028416666666666668
sI74
F0.0014083333333333333
sI75
F0.0011133333333333334
sI76
F0.00106
sI77
F0.00088666666666666668
sI78
F0.00096000000000000002
sI79
F0.00088000000000000003
sI80
F0.0019666666666666665
sI81
F0.0012733333333333333
sI82
F0.00107
sI83
F0.0022033333333333332
sI84
F0.0011166666666666666
sI85
F0.0010266666666666666
sI86
F0.0009766666666666667
sI87
F0.0009366666666666667
sI88
F0.0018916666666666667
sI89
F0.0014816666666666667
sI90
F0.0012633333333333333
sI91
F0.0011716666666666666
sI92
F0.00114
sI93
F0.00095833333333333328
sI94
F0.00088500000000000004
sI95
F0.00084999999999999995
sI96
F0.0030983333333333331
sI97
F0.0017183333333333334
sI98
F0.0012199999999999999
sI99
F0.0011033333333333333
sI100
F0.0010166666666666666
sI101
F0.00096500000000000004
sI102
F0.00093833333333333334
sI103
F0.0022283333333333335
sI104
F0.0020016666666666668
sI105
F0.0013283333333333333
sI106
F0.0012216666666666667
sI107
F0.0011000000000000001
sI108
F0.0010300000000000001
sI109
F0.00097333333333333332
sI110
F0.00058
sI111
F0.00095833333333333328
sI112
F0.0016316666666666667
sI113
F0.0027916666666666667
sI114
F0.00062333333333333338
sI115
F0.0012766666666666666
sI116
F0.0010683333333333332
sI117
F0.0009766666666666667
sI118
F0.0010433333333333334
sI119
F0.00086666666666666663
sI120
F0.0019683333333333332
sI121
F0.0012783333333333334
sI122
F0.0011866666666666666
sI123
F0.0011116666666666666
sI124
F0.00093999999999999997
sI125
F0.00091500000000000001
sI126
F0.00086499999999999999
sI127
F0.00087333333333333338
sI128
F0.0031783333333333334
sI129
F0.001645
sI130
F0.0013849999999999999
sI131
F0.0010433333333333334
sI132
F0.0010216666666666666
sI133
F0.0022550000000000001
sI134
F0.0010233333333333333
sI135
F0.00093499999999999996
sI136
F0.0019683333333333332
sI137
F0.001475
sI138
F0.0012483333333333333
sI139
F0.0011266666666666667
sI140
F0.00108
sI141
F0.00089166666666666669
sI142
F0.00094166666666666672
sI143
F0.0020583333333333335
sI144
F0.0020783333333333335
sI145
F0.0014033333333333333
sI146
F0.0011966666666666666
sI147
F0.0011066666666666666
sI148
F0.0010716666666666667
sI149
F0.00093333333333333332
sI150
F0.00097999999999999997
sI151
F0.00090333333333333335
sI152
F0.0015066666666666666
sI153
F0.0015033333333333333
sI154
F0.0011133333333333334
sI155
F0.0010333333333333334
sI156
F0.00092833333333333331
sI157
F0.00087500000000000002
sI158
F0.00087833333333333329
sI159
F0.0010083333333333333
sI160
F0.0030833333333333333
sI161
F0.001505
sI162
F0.0011883333333333333
sI163
F0.0025183333333333334
sI164
F0.001145
sI165
F0.00107
sI166
F0.00093499999999999996
sI167
F0.00087833333333333329
sI168
F0.00198
sI169
F0.0014783333333333332
sI170
F0.0012283333333333332
sI171
F0.0011566666666666667
sI172
F0.0010466666666666667
sI173
F0.0023266666666666666
sI174
F0.0011416666666666667
sI175
F0.00096833333333333331
sI176
F0.0019499999999999999
sI177
F0.0015366666666666666
sI178
F0.0012516666666666668
sI179
F0.00062
sI180
F0.001175
sI181
F0.00097333333333333332
sI182
F0.00091833333333333328
sI183
F0.0011383333333333334
sI184
F0.0018466666666666666
sI185
F0.001315
sI186
F0.0011433333333333334
sI187
F0.00070333333333333337
sI188
F0.0010416666666666667
sI189
F0.00095
sI190
F0.00094499999999999998
sI191
F0.00090499999999999999
sI192
F0.0029416666666666666
sI193
F0.0033283333333333333
sI194
F0.0014583333333333334
sI195
F0.0010916666666666666
sI196
F0.0010916666666666666
sI197
F0.00070500000000000001
sI198
F0.00098333333333333324
sI199
F0.00087000000000000001
sI200
F0.00063500000000000004
sI201
F0.0013166666666666667
sI202
F0.00055999999999999995
sI203
F0.0023866666666666667
sI204
F0.0011783333333333333
sI205
F0.00093333333333333332
sI206
F0.00083500000000000002
sI207
F0.00091
sI208
F0.0018333333333333333
sI209
F0.00164
sI210
F0.0011733333333333333
sI211
F0.00096500000000000004
sI212
F0.0011766666666666666
sI213
F0.0021283333333333332
sI214
F0.0010833333333333333
sI215
F0.00096833333333333331
sI216
F0.0019833333333333335
sI217
F0.0015399999999999999
sI218
F0.0013233333333333333
sI219
F0.0011416666666666667
sI220
F0.0010399999999999999
sI221
F0.00097166666666666669
sI222
F0.00091833333333333328
sI223
F0.00090499999999999999
sI224
F0.0031183333333333332
sI225
F0.0014283333333333333
sI226
F0.0012800000000000001
sI227
F0.0010449999999999999
sI228
F0.00107
sI229
F0.00098666666666666672
sI230
F0.00093333333333333332
sI231
F0.0009366666666666667
sI232
F0.0014666666666666667
sI233
F0.0027833333333333334
sI234
F0.0014016666666666667
sI235
F0.0010383333333333334
sI236
F0.00093999999999999997
sI237
F0.00093499999999999996
sI238
F0.00092500000000000004
sI239
F0.00091500000000000001
sI240
F0.0019733333333333334
sI241
F0.0011833333333333333
sI242
F0.0010833333333333333
sI243
F0.0024399999999999999
sI244
F0.00117
sI245
F0.00090833333333333337
sI246
F0.00090333333333333335
sI247
F0.00062833333333333328
sI248
F0.0019016666666666667
sI249
F0.0015816666666666668
sI250
F0.0012566666666666666
sI251
F0.00098999999999999999
sI252
F0.0010349999999999999
sI253
F0.00099666666666666675
sI254
F0.00092000000000000003
sI255
F0.00091666666666666665
sI256
F0.0030683333333333335
sI257
F0.0018699999999999999
sI258
F0.00132
sI259
F0.0010883333333333333
sI260
F0.0010933333333333333
sI261
F0.00062666666666666665
sI262
F0.00088666666666666668
sI263
F0.0021700000000000001
sI264
F0.00069666666666666661
sI265
F0.0017383333333333333
sI266
F0.0013583333333333334
sI267
F0.0012166666666666667
sI268
F0.0010566666666666667
sI269
F0.00096000000000000002
sI270
F0.00064166666666666669
sI271
F0.0010483333333333334
sI272
F0.0016916666666666666
sI273
F0.0030133333333333331
sI274
F0.0014166666666666668
sI275
F0.0010083333333333333
sI276
F0.0009766666666666667
sI277
F0.00084666666666666668
sI278
F0.00083833333333333329
sI279
F0.00083000000000000001
sI280
F0.0020133333333333331
sI281
F0.0011850000000000001
sI282
F0.0010183333333333333
sI283
F0.0010833333333333333
sI284
F0.00087333333333333338
sI285
F0.00099833333333333328
sI286
F0.00065833333333333336
sI287
F0.00088000000000000003
sI288
F0.0032799999999999999
sI289
F0.0015233333333333334
sI290
F0.0012983333333333334
sI291
F0.0011566666666666667
sI292
F0.0010250000000000001
sI293
F0.0023383333333333333
sI294
F0.0011566666666666667
sI295
F0.0011000000000000001
sI296
F0.00183
sI297
F0.00064166666666666669
sI298
F0.0015066666666666666
sI299
F0.0013433333333333333
sI300
F0.001155
sI301
F0.00064000000000000005
sI302
F0.00071000000000000002
sI303
F0.0020816666666666666
sI304
F0.0020966666666666668
sI305
F0.0013833333333333334
sI306
F0.0012066666666666667
sI307
F0.0011116666666666666
sI308
F0.0010433333333333334
sI309
F0.00097333333333333332
sI310
F0.00096000000000000002
sI311
F0.00059500000000000004
sI312
F0.0014366666666666666
sI313
F0.0014516666666666666
sI314
F0.00072833333333333333
sI315
F0.0011466666666666667
sI316
F0.0010083333333333333
sI317
F0.0010150000000000001
sI318
F0.00091500000000000001
sI319
F0.00087500000000000002
sI320
F0.0033400000000000001
sI321
F0.0014916666666666667
sI322
F0.0011616666666666668
sI323
F0.002405
sI324
F0.001155
sI325
F0.00090833333333333337
sI326
F0.00084833333333333332
sI327
F0.0008516666666666667
sI328
F0.0020899999999999998
sI329
F0.0014350000000000001
sI330
F0.0012783333333333334
sI331
F0.0011716666666666666
sI332
F0.00099500000000000001
sI333
F0.00064000000000000005
sI334
F0.0024016666666666665
sI335
F0.0011150000000000001
sI336
F0.0019716666666666667
sI337
F0.0014483333333333334
sI338
F0.0013583333333333334
sI339
F0.00065499999999999998
sI340
F0.0011999999999999999
sI341
F0.00097166666666666669
sI342
F0.0011199999999999999
sI343
F0.0011333333333333334
sI344
F0.0019183333333333333
sI345
F0.001415
sI346
F0.0011150000000000001
sI347
F0.00117
sI348
F0.0010449999999999999
sI349
F0.00099500000000000001
sI350
F0.00073499999999999998
sI351
F0.00068000000000000005
sI352
F0.0026483333333333333
ssg53
F0.41391166666666668
sstp60
a(g11
(tRp61
S'workload'
p62
g11
(tRp63
S'n_contents'
p64
I30000
sS'rank_per_group'
p65
I32
sS'name'
p66
S'DIFFRANK'
p67
sS'n_warmup'
p68
I60000
sS'rate'
p69
F300
sS'n_measured'
p70
I600000
sS'alpha'
p71
F1
sS'n_rank'
p72
I32
ssS'group'
p73
g11
(tRp74
g66
S'NOTGROUP'
p75
ssS'cache_policy'
p76
g11
(tRp77
g66
S'LRU'
p78
ssS'content_placement'
p79
g11
(tRp80
g66
S'UNIFORM'
p81
ssS'strategy'
p82
g11
(tRp83
g66
S'NRR'
p84
ssS'rankgroup'
p85
g11
(tRp86
g66
S'32,NOTGROUP'
p87
ssS'cache_placement'
p88
g11
(tRp89
S'network_cache'
p90
F0.01
sg66
g81
ssS'desc'
p91
S'Alpha: 1.0, strategy: NRR,  network cache: 0.01, topology: Edgefog, num of datastore: 1, rank&group: 32,NOTGROUP. '
p92
sS'topology'
p93
g11
(tRp94
S'n_node'
p95
I320
sS'n_datastore'
p96
I1
sg66
S'EDGEFOG'
p97
sS'n_member'
p98
I320
ssg11
(tRp99
S'LATENCY'
p100
g11
(tRp101
S'MEAN'
p102
F68.273419333942059
ssS'CACHE_HIT_RATIO'
p103
g11
(tRp104
S'PER_NODE_SERVER_HIT_RATIO'
p105
g11
(tRp106
I0
F0.78837666666666661
ssS'PER_NODE_CACHE_HIT_RATIO'
p107
g11
(tRp108
I2
F0.00064833333333333334
sI3
F0.0006333333333333333
sI4
F0.00064000000000000005
sI5
F0.00066166666666666663
sI6
F0.00059833333333333331
sI7
F0.00062666666666666665
sI8
F0.0006333333333333333
sI9
F0.00065666666666666662
sI10
F0.00066666666666666664
sI11
F0.00064333333333333332
sI12
F0.00066833333333333328
sI13
F0.00066666666666666664
sI14
F0.00064999999999999997
sI15
F0.00065166666666666671
sI16
F0.00067500000000000004
sI17
F0.00067666666666666667
sI18
F0.00059166666666666666
sI19
F0.0006066666666666667
sI20
F0.00066666666666666664
sI21
F0.00071666666666666667
sI22
F0.00065333333333333335
sI23
F0.00077333333333333334
sI24
F0.00071333333333333329
sI25
F0.00065499999999999998
sI26
F0.00065333333333333335
sI27
F0.00058166666666666664
sI28
F0.00073833333333333335
sI29
F0.00064499999999999996
sI30
F0.00068166666666666668
sI31
F0.00068000000000000005
sI32
F0.00059000000000000003
sI33
F0.00066500000000000001
sI34
F0.00065833333333333336
sI35
F0.00061833333333333336
sI36
F0.00066166666666666663
sI37
F0.00061333333333333335
sI38
F0.00061666666666666662
sI39
F0.00066833333333333328
sI40
F0.00067166666666666666
sI41
F0.00063000000000000003
sI42
F0.00065333333333333335
sI43
F0.00072333333333333332
sI44
F0.00065833333333333336
sI45
F0.00060333333333333333
sI46
F0.00070166666666666663
sI47
F0.00069499999999999998
sI48
F0.00069499999999999998
sI49
F0.00062166666666666663
sI50
F0.00065333333333333335
sI51
F0.00066833333333333328
sI52
F0.00068499999999999995
sI53
F0.00059166666666666666
sI54
F0.00064166666666666669
sI55
F0.00066666666666666664
sI56
F0.00065166666666666671
sI57
F0.00071000000000000002
sI58
F0.00064333333333333332
sI59
F0.00069666666666666661
sI60
F0.00067666666666666667
sI61
F0.00067833333333333331
sI62
F0.0006466666666666667
sI63
F0.00062
sI64
F0.00062
sI65
F0.00066833333333333328
sI66
F0.00071666666666666667
sI67
F0.00064000000000000005
sI68
F0.00069999999999999999
sI69
F0.00063000000000000003
sI70
F0.0007183333333333333
sI71
F0.0006066666666666667
sI72
F0.00068499999999999995
sI73
F0.00067000000000000002
sI74
F0.00064166666666666669
sI75
F0.00070333333333333337
sI76
F0.00058833333333333329
sI77
F0.00064333333333333332
sI78
F0.00067500000000000004
sI79
F0.00064999999999999997
sI80
F0.00065666666666666662
sI81
F0.00063500000000000004
sI82
F0.00065499999999999998
sI83
F0.00063500000000000004
sI84
F0.00072499999999999995
sI85
F0.00060999999999999997
sI86
F0.00064166666666666669
sI87
F0.00068166666666666668
sI88
F0.00060499999999999996
sI89
F0.00071500000000000003
sI90
F0.00068999999999999997
sI91
F0.00068999999999999997
sI92
F0.00064833333333333334
sI93
F0.00064833333333333334
sI94
F0.00071166666666666665
sI95
F0.00064333333333333332
sI96
F0.00061666666666666662
sI97
F0.00070500000000000001
sI98
F0.00067166666666666666
sI99
F0.00066333333333333337
sI100
F0.00065333333333333335
sI101
F0.00073499999999999998
sI102
F0.00066500000000000001
sI103
F0.00061333333333333335
sI104
F0.00060499999999999996
sI105
F0.00065666666666666662
sI106
F0.00064999999999999997
sI107
F0.0006333333333333333
sI108
F0.00065333333333333335
sI109
F0.00068999999999999997
sI110
F0.00073333333333333334
sI111
F0.00068000000000000005
sI112
F0.00072166666666666668
sI113
F0.00068499999999999995
sI114
F0.00064833333333333334
sI115
F0.00064999999999999997
sI116
F0.00064000000000000005
sI117
F0.00068166666666666668
sI118
F0.00073999999999999999
sI119
F0.00067333333333333329
sI120
F0.00070833333333333338
sI121
F0.00061333333333333335
sI122
F0.00066166666666666663
sI123
F0.00067500000000000004
sI124
F0.00068000000000000005
sI125
F0.00065166666666666671
sI126
F0.00070833333333333338
sI127
F0.00067500000000000004
sI128
F0.00066333333333333337
sI129
F0.00064333333333333332
sI130
F0.00061333333333333335
sI131
F0.00067833333333333331
sI132
F0.00060833333333333334
sI133
F0.00071000000000000002
sI134
F0.00071000000000000002
sI135
F0.00062666666666666665
sI136
F0.00061666666666666662
sI137
F0.00066166666666666663
sI138
F0.00056166666666666669
sI139
F0.00069666666666666661
sI140
F0.00068833333333333333
sI141
F0.00067000000000000002
sI142
F0.00072833333333333333
sI143
F0.00063666666666666667
sI144
F0.00067166666666666666
sI145
F0.00067500000000000004
sI146
F0.00068000000000000005
sI147
F0.00064000000000000005
sI148
F0.00064499999999999996
sI149
F0.0007583333333333333
sI150
F0.00069666666666666661
sI151
F0.00066
sI152
F0.00064999999999999997
sI153
F0.00062500000000000001
sI154
F0.00069833333333333336
sI155
F0.00061666666666666662
sI156
F0.00068999999999999997
sI157
F0.0006466666666666667
sI158
F0.00065166666666666671
sI159
F0.00064000000000000005
sI160
F0.00066
sI161
F0.00063500000000000004
sI162
F0.00064833333333333334
sI163
F0.00072999999999999996
sI164
F0.00064166666666666669
sI165
F0.00064333333333333332
sI166
F0.00059000000000000003
sI167
F0.00064166666666666669
sI168
F0.00065333333333333335
sI169
F0.00059666666666666668
sI170
F0.00069499999999999998
sI171
F0.00072166666666666668
sI172
F0.00066
sI173
F0.00069666666666666661
sI174
F0.00064833333333333334
sI175
F0.00063500000000000004
sI176
F0.00069999999999999999
sI177
F0.00073833333333333335
sI178
F0.00061666666666666662
sI179
F0.00062
sI180
F0.00073666666666666672
sI181
F0.00067000000000000002
sI182
F0.00065833333333333336
sI183
F0.00065333333333333335
sI184
F0.00062500000000000001
sI185
F0.00072000000000000005
sI186
F0.00061333333333333335
sI187
F0.00071166666666666665
sI188
F0.00064166666666666669
sI189
F0.00064000000000000005
sI190
F0.00075500000000000003
sI191
F0.00061833333333333336
sI192
F0.00066500000000000001
sI193
F0.00068499999999999995
sI194
F0.00067333333333333329
sI195
F0.00059166666666666666
sI196
F0.00068166666666666668
sI197
F0.0007183333333333333
sI198
F0.00063666666666666667
sI199
F0.00062833333333333328
sI200
F0.00064166666666666669
sI201
F0.00067833333333333331
sI202
F0.00071000000000000002
sI203
F0.00064333333333333332
sI204
F0.00064333333333333332
sI205
F0.00071333333333333329
sI206
F0.00064833333333333334
sI207
F0.0006333333333333333
sI208
F0.00067333333333333329
sI209
F0.00063500000000000004
sI210
F0.00064999999999999997
sI211
F0.00070500000000000001
sI212
F0.00066500000000000001
sI213
F0.0006466666666666667
sI214
F0.00067666666666666667
sI215
F0.00061333333333333335
sI216
F0.00060833333333333334
sI217
F0.00056833333333333334
sI218
F0.00073166666666666671
sI219
F0.00065499999999999998
sI220
F0.00069166666666666671
sI221
F0.00067333333333333329
sI222
F0.00064833333333333334
sI223
F0.00073666666666666672
sI224
F0.00062
sI225
F0.00058166666666666664
sI226
F0.00069499999999999998
sI227
F0.00075000000000000002
sI228
F0.00064499999999999996
sI229
F0.00062666666666666665
sI230
F0.00065499999999999998
sI231
F0.00067166666666666666
sI232
F0.00061333333333333335
sI233
F0.00068833333333333333
sI234
F0.00069499999999999998
sI235
F0.00065833333333333336
sI236
F0.00060999999999999997
sI237
F0.00064999999999999997
sI238
F0.00064499999999999996
sI239
F0.00059500000000000004
sI240
F0.00062500000000000001
sI241
F0.00067666666666666667
sI242
F0.00069166666666666671
sI243
F0.0006466666666666667
sI244
F0.00064000000000000005
sI245
F0.00058666666666666665
sI246
F0.0006333333333333333
sI247
F0.0006466666666666667
sI248
F0.00065333333333333335
sI249
F0.00064499999999999996
sI250
F0.00064833333333333334
sI251
F0.00069833333333333336
sI252
F0.00072666666666666669
sI253
F0.00065166666666666671
sI254
F0.00069833333333333336
sI255
F0.00062666666666666665
sI256
F0.00067666666666666667
sI257
F0.00067666666666666667
sI258
F0.00060499999999999996
sI259
F0.00065666666666666662
sI260
F0.000745
sI261
F0.00068333333333333332
sI262
F0.00064333333333333332
sI263
F0.00061666666666666662
sI264
F0.00064999999999999997
sI265
F0.00063000000000000003
sI266
F0.00065666666666666662
sI267
F0.00069833333333333336
sI268
F0.00066
sI269
F0.00063166666666666666
sI270
F0.00061833333333333336
sI271
F0.00060833333333333334
sI272
F0.00074666666666666664
sI273
F0.00066333333333333337
sI274
F0.00066166666666666663
sI275
F0.00064833333333333334
sI276
F0.00073499999999999998
sI277
F0.0007183333333333333
sI278
F0.00061833333333333336
sI279
F0.00061666666666666662
sI280
F0.00072333333333333332
sI281
F0.00068166666666666668
sI282
F0.00064833333333333334
sI283
F0.00067000000000000002
sI284
F0.00070166666666666663
sI285
F0.00061499999999999999
sI286
F0.00060333333333333333
sI287
F0.00062166666666666663
sI288
F0.00066333333333333337
sI289
F0.00065333333333333335
sI290
F0.00065666666666666662
sI291
F0.00067166666666666666
sI292
F0.00062833333333333328
sI293
F0.00068166666666666668
sI294
F0.00065833333333333336
sI295
F0.00076333333333333331
sI296
F0.0006333333333333333
sI297
F0.00070666666666666664
sI298
F0.00064833333333333334
sI299
F0.00062666666666666665
sI300
F0.00065666666666666662
sI301
F0.00065166666666666671
sI302
F0.00060833333333333334
sI303
F0.00069499999999999998
sI304
F0.00061499999999999999
sI305
F0.00066
sI306
F0.0006333333333333333
sI307
F0.00066
sI308
F0.00070833333333333338
sI309
F0.00072666666666666669
sI310
F0.00070333333333333337
sI311
F0.00070166666666666663
sI312
F0.00069166666666666671
sI313
F0.00066333333333333337
sI314
F0.00069999999999999999
sI315
F0.00059666666666666668
sI316
F0.00069333333333333334
sI317
F0.00066666666666666664
sI318
F0.00068333333333333332
sI319
F0.00067833333333333331
sI320
F0.00067333333333333329
sI321
F0.00068166666666666668
ssg102
F0.21162333333333333
sstp109
a(g11
(tRp110
S'workload'
p111
g11
(tRp112
S'n_contents'
p113
I30000
sS'rank_per_group'
p114
I32
sS'name'
p115
S'DIFFRANK'
p116
sS'n_warmup'
p117
I60000
sS'rate'
p118
F300
sS'n_measured'
p119
I600000
sS'alpha'
p120
F1
sS'n_rank'
p121
I32
ssS'group'
p122
g11
(tRp123
g115
S'NOTGROUP'
p124
ssS'cache_policy'
p125
g11
(tRp126
g115
S'LRU'
p127
ssS'content_placement'
p128
g11
(tRp129
g115
S'UNIFORM'
p130
ssS'strategy'
p131
g11
(tRp132
g115
S'NRR'
p133
ssS'rankgroup'
p134
g11
(tRp135
g115
S'32,NOTGROUP'
p136
ssS'cache_placement'
p137
g11
(tRp138
S'network_cache'
p139
F0.02
sg115
g130
ssS'desc'
p140
S'Alpha: 1.0, strategy: NRR,  network cache: 0.02, topology: Edgefog, num of datastore: 1, rank&group: 32,NOTGROUP. '
p141
sS'topology'
p142
g11
(tRp143
S'n_node'
p144
I320
sS'n_datastore'
p145
I1
sg115
S'EDGEFOG'
p146
sS'n_member'
p147
I320
ssg11
(tRp148
S'LATENCY'
p149
g11
(tRp150
S'MEAN'
p151
F62.123809000502909
ssS'CACHE_HIT_RATIO'
p152
g11
(tRp153
S'PER_NODE_SERVER_HIT_RATIO'
p154
g11
(tRp155
I0
F0.71736500000000003
ssS'PER_NODE_CACHE_HIT_RATIO'
p156
g11
(tRp157
I2
F0.00093166666666666669
sI3
F0.00090833333333333337
sI4
F0.00091833333333333328
sI5
F0.00094333333333333335
sI6
F0.00089833333333333334
sI7
F0.00088666666666666668
sI8
F0.00085999999999999998
sI9
F0.00090499999999999999
sI10
F0.00092833333333333331
sI11
F0.00089999999999999998
sI12
F0.00094333333333333335
sI13
F0.00089499999999999996
sI14
F0.0007716666666666667
sI15
F0.00093833333333333334
sI16
F0.00087666666666666665
sI17
F0.00091166666666666664
sI18
F0.00087333333333333338
sI19
F0.00086333333333333336
sI20
F0.00088166666666666667
sI21
F0.00086333333333333336
sI22
F0.00085833333333333334
sI23
F0.00085833333333333334
sI24
F0.00093999999999999997
sI25
F0.00090166666666666672
sI26
F0.00089666666666666671
sI27
F0.00086833333333333337
sI28
F0.00089833333333333334
sI29
F0.00088166666666666667
sI30
F0.00087500000000000002
sI31
F0.00082666666666666663
sI32
F0.00084500000000000005
sI33
F0.00087666666666666665
sI34
F0.00086666666666666663
sI35
F0.0008516666666666667
sI36
F0.00084999999999999995
sI37
F0.00089666666666666671
sI38
F0.00086833333333333337
sI39
F0.00082666666666666663
sI40
F0.00082666666666666663
sI41
F0.00089999999999999998
sI42
F0.00087333333333333338
sI43
F0.00087500000000000002
sI44
F0.00085999999999999998
sI45
F0.00084833333333333332
sI46
F0.00086833333333333337
sI47
F0.00094499999999999998
sI48
F0.00087833333333333329
sI49
F0.00089333333333333333
sI50
F0.00086166666666666661
sI51
F0.00091
sI52
F0.00085499999999999997
sI53
F0.00092833333333333331
sI54
F0.00089333333333333333
sI55
F0.00080833333333333332
sI56
F0.00085833333333333334
sI57
F0.00091500000000000001
sI58
F0.00088000000000000003
sI59
F0.00083500000000000002
sI60
F0.00087166666666666664
sI61
F0.00092666666666666668
sI62
F0.00093000000000000005
sI63
F0.00086333333333333336
sI64
F0.00086333333333333336
sI65
F0.00084166666666666667
sI66
F0.00085999999999999998
sI67
F0.00082333333333333336
sI68
F0.00095833333333333328
sI69
F0.00090666666666666662
sI70
F0.00087833333333333329
sI71
F0.00090333333333333335
sI72
F0.00093333333333333332
sI73
F0.00090333333333333335
sI74
F0.00082666666666666663
sI75
F0.00088000000000000003
sI76
F0.00088500000000000004
sI77
F0.00084833333333333332
sI78
F0.00086666666666666663
sI79
F0.00084500000000000005
sI80
F0.00084166666666666667
sI81
F0.00085499999999999997
sI82
F0.00093333333333333332
sI83
F0.00082833333333333337
sI84
F0.00090499999999999999
sI85
F0.00088166666666666667
sI86
F0.00092666666666666668
sI87
F0.00093833333333333334
sI88
F0.00096833333333333331
sI89
F0.00088166666666666667
sI90
F0.0008433333333333333
sI91
F0.00101
sI92
F0.00094833333333333336
sI93
F0.00088166666666666667
sI94
F0.00090166666666666672
sI95
F0.0010133333333333333
sI96
F0.00085833333333333334
sI97
F0.00092833333333333331
sI98
F0.00091166666666666664
sI99
F0.00092666666666666668
sI100
F0.00079666666666666666
sI101
F0.00086666666666666663
sI102
F0.00083166666666666664
sI103
F0.00086166666666666661
sI104
F0.00085666666666666671
sI105
F0.00088999999999999995
sI106
F0.00088666666666666668
sI107
F0.0008433333333333333
sI108
F0.00096333333333333329
sI109
F0.00090333333333333335
sI110
F0.00086333333333333336
sI111
F0.00091
sI112
F0.00088999999999999995
sI113
F0.00085999999999999998
sI114
F0.00080166666666666667
sI115
F0.0008833333333333333
sI116
F0.00084999999999999995
sI117
F0.00083500000000000002
sI118
F0.00078666666666666663
sI119
F0.00092500000000000004
sI120
F0.00088166666666666667
sI121
F0.00093000000000000005
sI122
F0.00081499999999999997
sI123
F0.00093833333333333334
sI124
F0.00093833333333333334
sI125
F0.00079666666666666666
sI126
F0.00090666666666666662
sI127
F0.00087666666666666665
sI128
F0.00087666666666666665
sI129
F0.00092833333333333331
sI130
F0.00087500000000000002
sI131
F0.00095333333333333338
sI132
F0.00091166666666666664
sI133
F0.00087500000000000002
sI134
F0.00087166666666666664
sI135
F0.0009366666666666667
sI136
F0.00081833333333333335
sI137
F0.00091333333333333338
sI138
F0.00092166666666666666
sI139
F0.00082166666666666662
sI140
F0.00088500000000000004
sI141
F0.00094499999999999998
sI142
F0.00096166666666666666
sI143
F0.00089499999999999996
sI144
F0.00087333333333333338
sI145
F0.00086166666666666661
sI146
F0.00088833333333333331
sI147
F0.00086666666666666663
sI148
F0.00088999999999999995
sI149
F0.00082333333333333336
sI150
F0.00085833333333333334
sI151
F0.00086833333333333337
sI152
F0.000825
sI153
F0.00084000000000000003
sI154
F0.00080999999999999996
sI155
F0.0009233333333333333
sI156
F0.0009233333333333333
sI157
F0.0009233333333333333
sI158
F0.00087166666666666664
sI159
F0.00093999999999999997
sI160
F0.00091500000000000001
sI161
F0.00089833333333333334
sI162
F0.00095333333333333338
sI163
F0.00086166666666666661
sI164
F0.000825
sI165
F0.00087166666666666664
sI166
F0.00086333333333333336
sI167
F0.00096166666666666666
sI168
F0.00096666666666666667
sI169
F0.00090333333333333335
sI170
F0.00089166666666666669
sI171
F0.00092833333333333331
sI172
F0.00084000000000000003
sI173
F0.00087166666666666664
sI174
F0.00080833333333333332
sI175
F0.00089166666666666669
sI176
F0.00088666666666666668
sI177
F0.00084833333333333332
sI178
F0.00088999999999999995
sI179
F0.00081833333333333335
sI180
F0.00088500000000000004
sI181
F0.00088999999999999995
sI182
F0.0009233333333333333
sI183
F0.0008833333333333333
sI184
F0.00082666666666666663
sI185
F0.00093166666666666669
sI186
F0.00089833333333333334
sI187
F0.00081499999999999997
sI188
F0.00089333333333333333
sI189
F0.00081666666666666671
sI190
F0.00082833333333333337
sI191
F0.00099833333333333328
sI192
F0.00090499999999999999
sI193
F0.00092666666666666668
sI194
F0.00088999999999999995
sI195
F0.00082833333333333337
sI196
F0.00089999999999999998
sI197
F0.00085666666666666671
sI198
F0.00097833333333333323
sI199
F0.00091666666666666665
sI200
F0.00091
sI201
F0.0009233333333333333
sI202
F0.00091833333333333328
sI203
F0.00085333333333333333
sI204
F0.00089166666666666669
sI205
F0.00091166666666666664
sI206
F0.000785
sI207
F0.00089833333333333334
sI208
F0.00080166666666666667
sI209
F0.00088666666666666668
sI210
F0.00087000000000000001
sI211
F0.00085499999999999997
sI212
F0.00091166666666666664
sI213
F0.00091666666666666665
sI214
F0.00091333333333333338
sI215
F0.00091500000000000001
sI216
F0.00083833333333333329
sI217
F0.000785
sI218
F0.00093833333333333334
sI219
F0.00091666666666666665
sI220
F0.00086333333333333336
sI221
F0.00083833333333333329
sI222
F0.00086333333333333336
sI223
F0.00088833333333333331
sI224
F0.0008516666666666667
sI225
F0.00092166666666666666
sI226
F0.00091333333333333338
sI227
F0.00080000000000000004
sI228
F0.00084166666666666667
sI229
F0.00091333333333333338
sI230
F0.00087666666666666665
sI231
F0.00084166666666666667
sI232
F0.00089499999999999996
sI233
F0.0008516666666666667
sI234
F0.00085499999999999997
sI235
F0.00092666666666666668
sI236
F0.00084000000000000003
sI237
F0.00089499999999999996
sI238
F0.00081499999999999997
sI239
F0.00091833333333333328
sI240
F0.00088000000000000003
sI241
F0.00085333333333333333
sI242
F0.00094833333333333336
sI243
F0.00086333333333333336
sI244
F0.00084166666666666667
sI245
F0.00092833333333333331
sI246
F0.00091833333333333328
sI247
F0.00089666666666666671
sI248
F0.00086499999999999999
sI249
F0.00084166666666666667
sI250
F0.00082333333333333336
sI251
F0.00088999999999999995
sI252
F0.00093333333333333332
sI253
F0.00085999999999999998
sI254
F0.00084000000000000003
sI255
F0.00096166666666666666
sI256
F0.00092000000000000003
sI257
F0.00085499999999999997
sI258
F0.00090833333333333337
sI259
F0.00089999999999999998
sI260
F0.00088500000000000004
sI261
F0.00085499999999999997
sI262
F0.00091833333333333328
sI263
F0.00085499999999999997
sI264
F0.00084999999999999995
sI265
F0.00090333333333333335
sI266
F0.00080166666666666667
sI267
F0.00080333333333333331
sI268
F0.00091833333333333328
sI269
F0.00094333333333333335
sI270
F0.00086499999999999999
sI271
F0.00087666666666666665
sI272
F0.0008833333333333333
sI273
F0.00089333333333333333
sI274
F0.00086166666666666661
sI275
F0.00083500000000000002
sI276
F0.00091666666666666665
sI277
F0.00095
sI278
F0.00091833333333333328
sI279
F0.00081999999999999998
sI280
F0.00096666666666666667
sI281
F0.00080500000000000005
sI282
F0.00086499999999999999
sI283
F0.00087500000000000002
sI284
F0.00084166666666666667
sI285
F0.00091833333333333328
sI286
F0.00087166666666666664
sI287
F0.00085833333333333334
sI288
F0.00085833333333333334
sI289
F0.0008833333333333333
sI290
F0.00093499999999999996
sI291
F0.00080166666666666667
sI292
F0.00083000000000000001
sI293
F0.00097333333333333332
sI294
F0.00083833333333333329
sI295
F0.001005
sI296
F0.00088833333333333331
sI297
F0.00088833333333333331
sI298
F0.00080333333333333331
sI299
F0.00088833333333333331
sI300
F0.00084500000000000005
sI301
F0.00079000000000000001
sI302
F0.00088999999999999995
sI303
F0.00088999999999999995
sI304
F0.00083500000000000002
sI305
F0.00091500000000000001
sI306
F0.00088166666666666667
sI307
F0.00081499999999999997
sI308
F0.00093166666666666669
sI309
F0.00092833333333333331
sI310
F0.00097000000000000005
sI311
F0.00091500000000000001
sI312
F0.00087500000000000002
sI313
F0.0009233333333333333
sI314
F0.00086166666666666661
sI315
F0.0009233333333333333
sI316
F0.00088500000000000004
sI317
F0.00097833333333333323
sI318
F0.00081666666666666671
sI319
F0.000825
sI320
F0.00094833333333333336
sI321
F0.00091666666666666665
ssg151
F0.28263500000000003
sstp158
a(g11
(tRp159
S'workload'
p160
g11
(tRp161
S'n_contents'
p162
I30000
sS'rank_per_group'
p163
I1
sS'name'
p164
S'DIFFRANK'
p165
sS'n_warmup'
p166
I60000
sS'rate'
p167
F300
sS'n_measured'
p168
I600000
sS'alpha'
p169
F1
sS'n_rank'
p170
I32
ssS'group'
p171
g11
(tRp172
g164
S'GROUP'
p173
ssS'cache_policy'
p174
g11
(tRp175
g164
S'LRU'
p176
ssS'content_placement'
p177
g11
(tRp178
g164
S'UNIFORM'
p179
ssS'strategy'
p180
g11
(tRp181
g164
S'NRR'
p182
ssS'rankgroup'
p183
g11
(tRp184
g164
S'32,GROUP'
p185
ssS'cache_placement'
p186
g11
(tRp187
S'network_cache'
p188
F0.02
sg164
g179
ssS'desc'
p189
S'Alpha: 1.0, strategy: NRR,  network cache: 0.02, topology: Edgefog, num of datastore: 1, rank&group: 32,GROUP. '
p190
sS'topology'
p191
g11
(tRp192
S'n_node'
p193
I320
sS'n_datastore'
p194
I1
sg164
S'EDGEFOG'
p195
sS'n_member'
p196
I10
ssg11
(tRp197
S'LATENCY'
p198
g11
(tRp199
S'MEAN'
p200
F43.653326666666665
ssS'CACHE_HIT_RATIO'
p201
g11
(tRp202
S'PER_NODE_SERVER_HIT_RATIO'
p203
g11
(tRp204
I0
F0.51705999999999996
ssS'PER_NODE_CACHE_HIT_RATIO'
p205
g11
(tRp206
I33
F0.0035233333333333332
sI34
F0.0016433333333333332
sI35
F0.0013699999999999999
sI36
F0.0011850000000000001
sI37
F0.0011066666666666666
sI38
F0.0011083333333333333
sI39
F0.0010833333333333333
sI40
F0.00087500000000000002
sI41
F0.0016283333333333334
sI42
F0.0013550000000000001
sI43
F0.0026050000000000001
sI44
F0.0013866666666666667
sI45
F0.0013283333333333333
sI46
F0.0011366666666666667
sI47
F0.00114
sI48
F0.00093999999999999997
sI49
F0.0021949999999999999
sI50
F0.0016183333333333334
sI51
F0.0015583333333333332
sI52
F0.0013450000000000001
sI53
F0.0025383333333333334
sI54
F0.001405
sI55
F0.0011183333333333334
sI56
F0.00091
sI57
F0.0020733333333333333
sI58
F0.001645
sI59
F0.0015633333333333332
sI60
F0.001415
sI61
F0.0013033333333333334
sI62
F0.0011633333333333333
sI63
F0.0011916666666666666
sI64
F0.0035833333333333333
sI65
F0.0015783333333333333
sI66
F0.0013916666666666667
sI67
F0.00094333333333333335
sI68
F0.0012650000000000001
sI69
F0.0012466666666666668
sI70
F0.0011299999999999999
sI71
F0.0012116666666666667
sI72
F0.0016083333333333334
sI73
F0.0031700000000000001
sI74
F0.00090166666666666672
sI75
F0.0013783333333333334
sI76
F0.0013116666666666667
sI77
F0.0010950000000000001
sI78
F0.00107
sI79
F0.00109
sI80
F0.0021516666666666667
sI81
F0.0014366666666666666
sI82
F0.0013033333333333334
sI83
F0.00080999999999999996
sI84
F0.0026283333333333332
sI85
F0.0013433333333333333
sI86
F0.0012899999999999999
sI87
F0.00093166666666666669
sI88
F0.0022016666666666669
sI89
F0.0017516666666666666
sI90
F0.0014400000000000001
sI91
F0.0013516666666666666
sI92
F0.0014300000000000001
sI93
F0.0012166666666666667
sI94
F0.00115
sI95
F0.0010766666666666667
sI96
F0.003405
sI97
F0.0019283333333333333
sI98
F0.0015566666666666667
sI99
F0.0012566666666666666
sI100
F0.0011883333333333333
sI101
F0.0012166666666666667
sI102
F0.0011199999999999999
sI103
F0.00082333333333333336
sI104
F0.0034849999999999998
sI105
F0.0019083333333333333
sI106
F0.001585
sI107
F0.0014250000000000001
sI108
F0.0012433333333333333
sI109
F0.001235
sI110
F0.0011666666666666668
sI111
F0.0011916666666666666
sI112
F0.00088166666666666667
sI113
F0.0029383333333333332
sI114
F0.0015766666666666668
sI115
F0.0012533333333333333
sI116
F0.001235
sI117
F0.0011850000000000001
sI118
F0.001145
sI119
F0.0010583333333333334
sI120
F0.0021133333333333334
sI121
F0.0015866666666666666
sI122
F0.001335
sI123
F0.0015399999999999999
sI124
F0.0012816666666666666
sI125
F0.001335
sI126
F0.0011999999999999999
sI127
F0.00124
sI128
F0.00088000000000000003
sI129
F0.0031966666666666667
sI130
F0.0018633333333333334
sI131
F0.00094833333333333336
sI132
F0.00092666666666666668
sI133
F0.0025916666666666666
sI134
F0.00134
sI135
F0.0012099999999999999
sI136
F0.0021316666666666667
sI137
F0.0016966666666666666
sI138
F0.0016283333333333334
sI139
F0.0014116666666666668
sI140
F0.0013583333333333334
sI141
F0.00084666666666666668
sI142
F0.0012183333333333334
sI143
F0.0023366666666666666
sI144
F0.0023066666666666665
sI145
F0.0015399999999999999
sI146
F0.0013699999999999999
sI147
F0.0012800000000000001
sI148
F0.001245
sI149
F0.0012416666666666667
sI150
F0.0012316666666666667
sI151
F0.0011100000000000001
sI152
F0.0016383333333333334
sI153
F0.0017183333333333334
sI154
F0.0013333333333333333
sI155
F0.0012483333333333333
sI156
F0.0012483333333333333
sI157
F0.0010933333333333333
sI158
F0.00085333333333333333
sI159
F0.0011349999999999999
sI160
F0.0035516666666666665
sI161
F0.0017066666666666667
sI162
F0.0014033333333333333
sI163
F0.0027000000000000001
sI164
F0.0014649999999999999
sI165
F0.0012533333333333333
sI166
F0.0008833333333333333
sI167
F0.001065
sI168
F0.0020433333333333332
sI169
F0.0017183333333333334
sI170
F0.0009233333333333333
sI171
F0.0013816666666666667
sI172
F0.0013516666666666666
sI173
F0.0025066666666666666
sI174
F0.0012383333333333333
sI175
F0.0011833333333333333
sI176
F0.0019833333333333335
sI177
F0.0017633333333333333
sI178
F0.0015183333333333333
sI179
F0.0014016666666666667
sI180
F0.0013033333333333334
sI181
F0.0012183333333333334
sI182
F0.00079500000000000003
sI183
F0.0012666666666666666
sI184
F0.0020899999999999998
sI185
F0.0015166666666666666
sI186
F0.00098499999999999998
sI187
F0.0013333333333333333
sI188
F0.0012466666666666668
sI189
F0.0013183333333333332
sI190
F0.0012366666666666667
sI191
F0.0011316666666666667
sI192
F0.0029399999999999999
sI193
F0.0029683333333333332
sI194
F0.00156
sI195
F0.0012716666666666666
sI196
F0.0012116666666666667
sI197
F0.0011916666666666666
sI198
F0.0010916666666666666
sI199
F0.0010566666666666667
sI200
F0.002065
sI201
F0.0015066666666666666
sI202
F0.001235
sI203
F0.0026416666666666667
sI204
F0.00142
sI205
F0.0013483333333333333
sI206
F0.0011150000000000001
sI207
F0.0010883333333333333
sI208
F0.0021016666666666666
sI209
F0.00087833333333333329
sI210
F0.001735
sI211
F0.0013333333333333333
sI212
F0.0013666666666666666
sI213
F0.0025349999999999999
sI214
F0.00087000000000000001
sI215
F0.0012883333333333334
sI216
F0.0021849999999999999
sI217
F0.001645
sI218
F0.0014916666666666667
sI219
F0.0013966666666666667
sI220
F0.00132
sI221
F0.0011900000000000001
sI222
F0.0011716666666666666
sI223
F0.0011466666666666667
sI224
F0.0035166666666666666
sI225
F0.0017933333333333334
sI226
F0.001405
sI227
F0.0012833333333333334
sI228
F0.00124
sI229
F0.001155
sI230
F0.0011383333333333334
sI231
F0.00087500000000000002
sI232
F0.0016766666666666666
sI233
F0.0030233333333333332
sI234
F0.0015566666666666667
sI235
F0.001315
sI236
F0.00089333333333333333
sI237
F0.0011800000000000001
sI238
F0.0011133333333333334
sI239
F0.0010566666666666667
sI240
F0.0020799999999999998
sI241
F0.0014766666666666667
sI242
F0.0012433333333333333
sI243
F0.0026633333333333335
sI244
F0.0013816666666666667
sI245
F0.0012466666666666668
sI246
F0.001165
sI247
F0.001175
sI248
F0.0021283333333333332
sI249
F0.0016383333333333334
sI250
F0.0016066666666666666
sI251
F0.00086833333333333337
sI252
F0.0013033333333333334
sI253
F0.00089999999999999998
sI254
F0.0011833333333333333
sI255
F0.0010366666666666666
sI256
F0.0033566666666666667
sI257
F0.00086499999999999999
sI258
F0.0018649999999999999
sI259
F0.0014583333333333334
sI260
F0.0013866666666666667
sI261
F0.001315
sI262
F0.0012216666666666667
sI263
F0.0022899999999999999
sI264
F0.0023233333333333335
sI265
F0.0016916666666666666
sI266
F0.00087666666666666665
sI267
F0.001505
sI268
F0.0014033333333333333
sI269
F0.0011883333333333333
sI270
F0.0012166666666666667
sI271
F0.001245
sI272
F0.00096666666666666667
sI273
F0.0031133333333333334
sI274
F0.0015150000000000001
sI275
F0.0013716666666666667
sI276
F0.0012183333333333334
sI277
F0.0012083333333333334
sI278
F0.0010533333333333334
sI279
F0.0011100000000000001
sI280
F0.0019966666666666666
sI281
F0.0014316666666666666
sI282
F0.0013383333333333333
sI283
F0.0012966666666666667
sI284
F0.0011249999999999999
sI285
F0.0011116666666666666
sI286
F0.0011783333333333333
sI287
F0.0011316666666666667
sI288
F0.0034766666666666665
sI289
F0.0018283333333333333
sI290
F0.0015383333333333334
sI291
F0.0014016666666666667
sI292
F0.0012750000000000001
sI293
F0.0026700000000000001
sI294
F0.001315
sI295
F0.0011816666666666666
sI296
F0.0021933333333333332
sI297
F0.00082833333333333337
sI298
F0.0018649999999999999
sI299
F0.0015250000000000001
sI300
F0.0013216666666666667
sI301
F0.0011933333333333334
sI302
F0.00081499999999999997
sI303
F0.0023466666666666666
sI304
F0.0023933333333333333
sI305
F0.0015883333333333333
sI306
F0.0013333333333333333
sI307
F0.0013216666666666667
sI308
F0.00080166666666666667
sI309
F0.0012133333333333334
sI310
F0.0011349999999999999
sI311
F0.0011050000000000001
sI312
F0.0016750000000000001
sI313
F0.00175
sI314
F0.0015383333333333334
sI315
F0.0012916666666666667
sI316
F0.0012666666666666666
sI317
F0.00124
sI318
F0.0012583333333333333
sI319
F0.001085
sI320
F0.0034666666666666665
sI321
F0.00086499999999999999
sI322
F0.0015616666666666667
sI323
F0.002565
sI324
F0.001475
sI325
F0.0012616666666666666
sI326
F0.00088666666666666668
sI327
F0.0010516666666666667
sI328
F0.0019766666666666665
sI329
F0.0015933333333333333
sI330
F0.0014499999999999999
sI331
F0.0015299999999999999
sI332
F0.0014216666666666666
sI333
F0.0023516666666666668
sI334
F0.0013183333333333332
sI335
F0.0012600000000000001
sI336
F0.0020216666666666668
sI337
F0.0017933333333333334
sI338
F0.0014833333333333332
sI339
F0.0013766666666666667
sI340
F0.0014333333333333333
sI341
F0.0011983333333333334
sI342
F0.0011266666666666667
sI343
F0.0013083333333333334
sI344
F0.0020116666666666668
sI345
F0.0015950000000000001
sI346
F0.0014350000000000001
sI347
F0.0012316666666666667
sI348
F0.0011766666666666666
sI349
F0.0011616666666666668
sI350
F0.0012483333333333333
sI351
F0.0011100000000000001
sI352
F0.0031133333333333334
ssg200
F0.48293999999999998
sstp207
a(g11
(tRp208
S'workload'
p209
g11
(tRp210
S'n_contents'
p211
I30000
sS'rank_per_group'
p212
I1
sS'name'
p213
S'DIFFRANK'
p214
sS'n_warmup'
p215
I60000
sS'rate'
p216
F300
sS'n_measured'
p217
I600000
sS'alpha'
p218
F1
sS'n_rank'
p219
I4
ssS'group'
p220
g11
(tRp221
g213
S'GROUP'
p222
ssS'cache_policy'
p223
g11
(tRp224
g213
S'LRU'
p225
ssS'content_placement'
p226
g11
(tRp227
g213
S'UNIFORM'
p228
ssS'strategy'
p229
g11
(tRp230
g213
S'NRR'
p231
ssS'rankgroup'
p232
g11
(tRp233
g213
S'4,GROUP'
p234
ssS'cache_placement'
p235
g11
(tRp236
S'network_cache'
p237
F0.01
sg213
g228
ssS'desc'
p238
S'Alpha: 1.0, strategy: NRR,  network cache: 0.01, topology: Edgefog, num of datastore: 1, rank&group: 4,GROUP. '
p239
sS'topology'
p240
g11
(tRp241
S'n_node'
p242
I320
sS'n_datastore'
p243
I1
sg213
S'EDGEFOG'
p244
sS'n_member'
p245
I80
ssg11
(tRp246
S'LATENCY'
p247
g11
(tRp248
S'MEAN'
p249
F45.935580000000002
ssS'CACHE_HIT_RATIO'
p250
g11
(tRp251
S'PER_NODE_SERVER_HIT_RATIO'
p252
g11
(tRp253
I0
F0.41230499999999998
ssS'PER_NODE_CACHE_HIT_RATIO'
p254
g11
(tRp255
I5
F0.00063833333333333331
sI6
F0.021488333333333335
sI7
F0.0017166666666666667
sI8
F0.00072000000000000005
sI9
F0.00061333333333333335
sI10
F0.0023916666666666665
sI11
F0.0016683333333333333
sI12
F0.0012366666666666667
sI13
F0.00065666666666666662
sI14
F0.0010466666666666667
sI15
F0.00096666666666666667
sI16
F0.0019333333333333333
sI17
F0.0016933333333333334
sI18
F0.00068166666666666668
sI19
F0.00064999999999999997
sI20
F0.00070500000000000001
sI21
F0.0010716666666666667
sI22
F0.00060999999999999997
sI23
F0.00063833333333333331
sI24
F0.0019383333333333334
sI25
F0.001555
sI26
F0.0014400000000000001
sI27
F0.0011166666666666666
sI28
F0.0011066666666666666
sI29
F0.00057333333333333336
sI30
F0.00097000000000000005
sI31
F0.0006466666666666667
sI32
F0.015218333333333334
sI33
F0.005156666666666667
sI34
F0.0025633333333333333
sI35
F0.0018
sI36
F0.00165
sI37
F0.0013583333333333334
sI38
F0.0012683333333333333
sI39
F0.0012333333333333332
sI40
F0.0021683333333333333
sI41
F0.0015666666666666667
sI42
F0.0013966666666666667
sI43
F0.0012899999999999999
sI44
F0.00065833333333333336
sI45
F0.00067333333333333329
sI46
F0.0010733333333333333
sI47
F0.0010683333333333332
sI48
F0.0006333333333333333
sI49
F0.0015950000000000001
sI50
F0.0013083333333333334
sI51
F0.00062833333333333328
sI52
F0.0011000000000000001
sI53
F0.0010566666666666667
sI54
F0.0010233333333333333
sI55
F0.00094499999999999998
sI56
F0.0019400000000000001
sI57
F0.0014933333333333333
sI58
F0.00059999999999999995
sI59
F0.0013183333333333332
sI60
F0.0010399999999999999
sI61
F0.0011366666666666667
sI62
F0.00062
sI63
F0.00092500000000000004
sI64
F0.0083233333333333336
sI65
F0.0038649999999999999
sI66
F0.0029816666666666668
sI67
F0.0020500000000000002
sI68
F0.0017966666666666667
sI69
F0.0012666666666666666
sI70
F0.00124
sI71
F0.0012783333333333334
sI72
F0.0018600000000000001
sI73
F0.00147
sI74
F0.001305
sI75
F0.0014383333333333333
sI76
F0.00058833333333333329
sI77
F0.0010283333333333334
sI78
F0.00098333333333333324
sI79
F0.0010716666666666667
sI80
F0.0019066666666666668
sI81
F0.0013866666666666667
sI82
F0.0012483333333333333
sI83
F0.00063000000000000003
sI84
F0.00139
sI85
F0.0011516666666666667
sI86
F0.00096000000000000002
sI87
F0.00065666666666666662
sI88
F0.00197
sI89
F0.0016466666666666667
sI90
F0.00139
sI91
F0.0014366666666666666
sI92
F0.0011150000000000001
sI93
F0.0011266666666666667
sI94
F0.00069666666666666661
sI95
F0.00098666666666666672
sI96
F0.014725
sI97
F0.0041349999999999998
sI98
F0.0026566666666666666
sI99
F0.0006866666666666667
sI100
F0.00062666666666666665
sI101
F0.0013216666666666667
sI102
F0.00134
sI103
F0.0012516666666666668
sI104
F0.0025249999999999999
sI105
F0.0018500000000000001
sI106
F0.0015466666666666667
sI107
F0.00062833333333333328
sI108
F0.0012750000000000001
sI109
F0.00063166666666666666
sI110
F0.00059000000000000003
sI111
F0.00064999999999999997
sI112
F0.0020149999999999999
sI113
F0.00063166666666666666
sI114
F0.0014566666666666667
sI115
F0.0013916666666666667
sI116
F0.0011133333333333334
sI117
F0.0010616666666666667
sI118
F0.0011316666666666667
sI119
F0.00096333333333333329
sI120
F0.0019233333333333333
sI121
F0.00073999999999999999
sI122
F0.0011866666666666666
sI123
F0.00123
sI124
F0.0012083333333333334
sI125
F0.00098833333333333325
sI126
F0.00097833333333333323
sI127
F0.0010349999999999999
sI128
F0.028848333333333333
sI129
F0.0034233333333333333
sI130
F0.00068499999999999995
sI131
F0.0019383333333333334
sI132
F0.0018416666666666666
sI133
F0.00059500000000000004
sI134
F0.00063833333333333331
sI135
F0.0013033333333333334
sI136
F0.0019866666666666665
sI137
F0.0015583333333333332
sI138
F0.00060999999999999997
sI139
F0.0012949999999999999
sI140
F0.00064999999999999997
sI141
F0.0011249999999999999
sI142
F0.0010766666666666667
sI143
F0.00067833333333333331
sI144
F0.0020400000000000001
sI145
F0.0016900000000000001
sI146
F0.00072999999999999996
sI147
F0.00066833333333333328
sI148
F0.0012583333333333333
sI149
F0.0011166666666666666
sI150
F0.0010950000000000001
sI151
F0.00099333333333333326
sI152
F0.0017949999999999999
sI153
F0.00074833333333333338
sI154
F0.0012583333333333333
sI155
F0.001155
sI156
F0.0012083333333333334
sI157
F0.0010883333333333333
sI158
F0.0010016666666666668
sI159
F0.00073499999999999998
sI160
F0.0049899999999999996
sI161
F0.002545
sI162
F0.00065833333333333336
sI163
F0.0017016666666666666
sI164
F0.00066166666666666663
sI165
F0.022801666666666668
sI166
F0.0019716666666666667
sI167
F0.0016066666666666666
sI168
F0.00065666666666666662
sI169
F0.00067833333333333331
sI170
F0.0017383333333333333
sI171
F0.0016466666666666667
sI172
F0.001315
sI173
F0.0012083333333333334
sI174
F0.00114
sI175
F0.00075333333333333329
sI176
F0.00067833333333333331
sI177
F0.0017049999999999999
sI178
F0.0014566666666666667
sI179
F0.0013466666666666666
sI180
F0.00068833333333333333
sI181
F0.0010833333333333333
sI182
F0.00097833333333333323
sI183
F0.00099666666666666675
sI184
F0.0018749999999999999
sI185
F0.00060999999999999997
sI186
F0.0016033333333333333
sI187
F0.001235
sI188
F0.0011433333333333334
sI189
F0.00097999999999999997
sI190
F0.00098833333333333325
sI191
F0.00070333333333333337
sI192
F0.00066500000000000001
sI193
F0.0095066666666666667
sI194
F0.00066166666666666663
sI195
F0.0038133333333333335
sI196
F0.0022683333333333331
sI197
F0.00066500000000000001
sI198
F0.00061333333333333335
sI199
F0.0013766666666666667
sI200
F0.0022399999999999998
sI201
F0.0017966666666666667
sI202
F0.00068999999999999997
sI203
F0.0015233333333333334
sI204
F0.0013533333333333333
sI205
F0.0011533333333333333
sI206
F0.0010449999999999999
sI207
F0.0010133333333333333
sI208
F0.0023316666666666668
sI209
F0.00174
sI210
F0.001495
sI211
F0.0012483333333333333
sI212
F0.0011833333333333333
sI213
F0.00066500000000000001
sI214
F0.0012666666666666666
sI215
F0.00064999999999999997
sI216
F0.0017899999999999999
sI217
F0.0015533333333333334
sI218
F0.0013933333333333332
sI219
F0.0013516666666666666
sI220
F0.00065499999999999998
sI221
F0.0010383333333333334
sI222
F0.0010133333333333333
sI223
F0.00093000000000000005
sI224
F0.013631666666666667
sI225
F0.00066500000000000001
sI226
F0.004188333333333333
sI227
F0.0029033333333333333
sI228
F0.0019916666666666668
sI229
F0.00058
sI230
F0.0017216666666666667
sI231
F0.0013033333333333334
sI232
F0.00067833333333333331
sI233
F0.00066666666666666664
sI234
F0.00067666666666666667
sI235
F0.0015316666666666666
sI236
F0.0012883333333333334
sI237
F0.0011150000000000001
sI238
F0.00109
sI239
F0.0010966666666666666
sI240
F0.0021366666666666665
sI241
F0.0016299999999999999
sI242
F0.0013316666666666668
sI243
F0.0013766666666666667
sI244
F0.0013116666666666667
sI245
F0.0010683333333333332
sI246
F0.0010316666666666666
sI247
F0.00093999999999999997
sI248
F0.00067500000000000004
sI249
F0.00066
sI250
F0.0014266666666666666
sI251
F0.00063500000000000004
sI252
F0.0011016666666666666
sI253
F0.0011083333333333333
sI254
F0.00062500000000000001
sI255
F0.00097833333333333323
sI256
F0.034154999999999998
sI257
F0.0044983333333333334
sI258
F0.0025683333333333335
sI259
F0.0016816666666666666
sI260
F0.0014366666666666666
sI261
F0.00064000000000000005
sI262
F0.00066333333333333337
sI263
F0.0011633333333333333
sI264
F0.00066666666666666664
sI265
F0.001735
sI266
F0.00056333333333333333
sI267
F0.0012700000000000001
sI268
F0.0011766666666666666
sI269
F0.00116
sI270
F0.00068166666666666668
sI271
F0.00095833333333333328
sI272
F0.0020383333333333334
sI273
F0.00060833333333333334
sI274
F0.001415
sI275
F0.001175
sI276
F0.001155
sI277
F0.00097999999999999997
sI278
F0.0010200000000000001
sI279
F0.0010300000000000001
sI280
F0.001905
sI281
F0.00173
sI282
F0.0013749999999999999
sI283
F0.0013266666666666667
sI284
F0.0011850000000000001
sI285
F0.00098833333333333325
sI286
F0.0010733333333333333
sI287
F0.00064166666666666669
sI288
F0.0091633333333333341
sI289
F0.003725
sI290
F0.0025133333333333331
sI291
F0.0017816666666666666
sI292
F0.00158
sI293
F0.0013133333333333332
sI294
F0.0013983333333333332
sI295
F0.0012999999999999999
sI296
F0.00066
sI297
F0.0018500000000000001
sI298
F0.0013500000000000001
sI299
F0.0014533333333333334
sI300
F0.0012383333333333333
sI301
F0.001155
sI302
F0.0011349999999999999
sI303
F0.00067333333333333329
sI304
F0.00067166666666666666
sI305
F0.0015583333333333332
sI306
F0.001305
sI307
F0.0012766666666666666
sI308
F0.0011683333333333333
sI309
F0.0010349999999999999
sI310
F0.00071166666666666665
sI311
F0.00068499999999999995
sI312
F0.0016233333333333334
sI313
F0.0014533333333333334
sI314
F0.0011833333333333333
sI315
F0.0013733333333333334
sI316
F0.0011983333333333334
sI317
F0.0010233333333333333
sI318
F0.00097499999999999996
sI319
F0.0010200000000000001
sI320
F0.0058916666666666666
sI321
F0.0026549999999999998
sI322
F0.0020149999999999999
sI323
F0.00067166666666666666
sI324
F0.00068999999999999997
ssg249
F0.58769499999999997
sstp256
a(g11
(tRp257
S'workload'
p258
g11
(tRp259
S'n_contents'
p260
I30000
sS'rank_per_group'
p261
I4
sS'name'
p262
S'DIFFRANK'
p263
sS'n_warmup'
p264
I60000
sS'rate'
p265
F300
sS'n_measured'
p266
I600000
sS'alpha'
p267
F1
sS'n_rank'
p268
I4
ssS'group'
p269
g11
(tRp270
g262
S'NOTGROUP'
p271
ssS'cache_policy'
p272
g11
(tRp273
g262
S'LRU'
p274
ssS'content_placement'
p275
g11
(tRp276
g262
S'UNIFORM'
p277
ssS'strategy'
p278
g11
(tRp279
g262
S'NRR'
p280
ssS'rankgroup'
p281
g11
(tRp282
g262
S'4,NOTGROUP'
p283
ssS'cache_placement'
p284
g11
(tRp285
S'network_cache'
p286
F0.01
sg262
g277
ssS'desc'
p287
S'Alpha: 1.0, strategy: NRR,  network cache: 0.01, topology: Edgefog, num of datastore: 1, rank&group: 4,NOTGROUP. '
p288
sS'topology'
p289
g11
(tRp290
S'n_node'
p291
I320
sS'n_datastore'
p292
I1
sg262
S'EDGEFOG'
p293
sS'n_member'
p294
I320
ssg11
(tRp295
S'LATENCY'
p296
g11
(tRp297
S'MEAN'
p298
F68.233006000608029
ssS'CACHE_HIT_RATIO'
p299
g11
(tRp300
S'PER_NODE_SERVER_HIT_RATIO'
p301
g11
(tRp302
I0
F0.78791
ssS'PER_NODE_CACHE_HIT_RATIO'
p303
g11
(tRp304
I2
F0.00071500000000000003
sI3
F0.0006066666666666667
sI4
F0.00063500000000000004
sI5
F0.00063666666666666667
sI6
F0.00063833333333333331
sI7
F0.00063500000000000004
sI8
F0.00061499999999999999
sI9
F0.00058333333333333338
sI10
F0.00070833333333333338
sI11
F0.00059666666666666668
sI12
F0.00058833333333333329
sI13
F0.00064999999999999997
sI14
F0.00062166666666666663
sI15
F0.00068333333333333332
sI16
F0.00067500000000000004
sI17
F0.00065499999999999998
sI18
F0.0007183333333333333
sI19
F0.00066666666666666664
sI20
F0.00063500000000000004
sI21
F0.00066166666666666663
sI22
F0.00069833333333333336
sI23
F0.00067500000000000004
sI24
F0.00066666666666666664
sI25
F0.00063833333333333331
sI26
F0.0006466666666666667
sI27
F0.00064166666666666669
sI28
F0.00061833333333333336
sI29
F0.0007183333333333333
sI30
F0.00072833333333333333
sI31
F0.00061833333333333336
sI32
F0.00057499999999999999
sI33
F0.00067833333333333331
sI34
F0.00073999999999999999
sI35
F0.00065333333333333335
sI36
F0.00072333333333333332
sI37
F0.00065166666666666671
sI38
F0.00068166666666666668
sI39
F0.00070333333333333337
sI40
F0.00062
sI41
F0.00074666666666666664
sI42
F0.00067833333333333331
sI43
F0.00067166666666666666
sI44
F0.00066666666666666664
sI45
F0.00061333333333333335
sI46
F0.00071333333333333329
sI47
F0.00068000000000000005
sI48
F0.00063833333333333331
sI49
F0.00067833333333333331
sI50
F0.00073499999999999998
sI51
F0.00065333333333333335
sI52
F0.00070666666666666664
sI53
F0.00067166666666666666
sI54
F0.00069499999999999998
sI55
F0.00057333333333333336
sI56
F0.00072666666666666669
sI57
F0.00066833333333333328
sI58
F0.00065833333333333336
sI59
F0.00064999999999999997
sI60
F0.00064000000000000005
sI61
F0.00062500000000000001
sI62
F0.00062666666666666665
sI63
F0.00065833333333333336
sI64
F0.00068000000000000005
sI65
F0.00066
sI66
F0.00068000000000000005
sI67
F0.00071000000000000002
sI68
F0.00063833333333333331
sI69
F0.00074666666666666664
sI70
F0.00069499999999999998
sI71
F0.00066166666666666663
sI72
F0.00067000000000000002
sI73
F0.0006866666666666667
sI74
F0.00063833333333333331
sI75
F0.00056333333333333333
sI76
F0.00067000000000000002
sI77
F0.00066666666666666664
sI78
F0.00066333333333333337
sI79
F0.00062666666666666665
sI80
F0.00068833333333333333
sI81
F0.00064000000000000005
sI82
F0.00072000000000000005
sI83
F0.00066500000000000001
sI84
F0.00067500000000000004
sI85
F0.00068333333333333332
sI86
F0.00073499999999999998
sI87
F0.0005933333333333333
sI88
F0.00066
sI89
F0.00070500000000000001
sI90
F0.00065666666666666662
sI91
F0.00072499999999999995
sI92
F0.00069333333333333334
sI93
F0.00065333333333333335
sI94
F0.00071333333333333329
sI95
F0.00071000000000000002
sI96
F0.00061166666666666672
sI97
F0.00072666666666666669
sI98
F0.00062833333333333328
sI99
F0.00060999999999999997
sI100
F0.00065666666666666662
sI101
F0.00069999999999999999
sI102
F0.00070666666666666664
sI103
F0.00063000000000000003
sI104
F0.00062166666666666663
sI105
F0.00062833333333333328
sI106
F0.00064166666666666669
sI107
F0.00062666666666666665
sI108
F0.00062666666666666665
sI109
F0.00076999999999999996
sI110
F0.00075666666666666666
sI111
F0.00064833333333333334
sI112
F0.00065499999999999998
sI113
F0.0006066666666666667
sI114
F0.00066166666666666663
sI115
F0.00067666666666666667
sI116
F0.00068166666666666668
sI117
F0.00061833333333333336
sI118
F0.00062333333333333338
sI119
F0.00061333333333333335
sI120
F0.00067666666666666667
sI121
F0.00070500000000000001
sI122
F0.0006466666666666667
sI123
F0.00066500000000000001
sI124
F0.00065833333333333336
sI125
F0.00066
sI126
F0.00071000000000000002
sI127
F0.00068499999999999995
sI128
F0.00068333333333333332
sI129
F0.00069666666666666661
sI130
F0.0006466666666666667
sI131
F0.00073999999999999999
sI132
F0.00069999999999999999
sI133
F0.00058666666666666665
sI134
F0.00068499999999999995
sI135
F0.00067666666666666667
sI136
F0.00069499999999999998
sI137
F0.00062666666666666665
sI138
F0.000745
sI139
F0.00064000000000000005
sI140
F0.00071500000000000003
sI141
F0.00069166666666666671
sI142
F0.00066333333333333337
sI143
F0.00056166666666666669
sI144
F0.00069166666666666671
sI145
F0.00068999999999999997
sI146
F0.00068000000000000005
sI147
F0.00069666666666666661
sI148
F0.00060833333333333334
sI149
F0.00067666666666666667
sI150
F0.00066166666666666663
sI151
F0.00067000000000000002
sI152
F0.00065166666666666671
sI153
F0.00068333333333333332
sI154
F0.00072499999999999995
sI155
F0.00068000000000000005
sI156
F0.00066166666666666663
sI157
F0.00069833333333333336
sI158
F0.00066166666666666663
sI159
F0.00066833333333333328
sI160
F0.00061499999999999999
sI161
F0.00068833333333333333
sI162
F0.00064833333333333334
sI163
F0.00064833333333333334
sI164
F0.00068499999999999995
sI165
F0.00060499999999999996
sI166
F0.00069499999999999998
sI167
F0.00067500000000000004
sI168
F0.00070333333333333337
sI169
F0.00068166666666666668
sI170
F0.00060499999999999996
sI171
F0.00061333333333333335
sI172
F0.00070666666666666664
sI173
F0.00063833333333333331
sI174
F0.00063000000000000003
sI175
F0.00069666666666666661
sI176
F0.00059833333333333331
sI177
F0.00066
sI178
F0.00059500000000000004
sI179
F0.00062333333333333338
sI180
F0.00064333333333333332
sI181
F0.00068166666666666668
sI182
F0.00065833333333333336
sI183
F0.00068999999999999997
sI184
F0.00061333333333333335
sI185
F0.00067500000000000004
sI186
F0.00068166666666666668
sI187
F0.00066
sI188
F0.00064833333333333334
sI189
F0.00070166666666666663
sI190
F0.00065166666666666671
sI191
F0.00064499999999999996
sI192
F0.00064833333333333334
sI193
F0.00059833333333333331
sI194
F0.00064833333333333334
sI195
F0.00064499999999999996
sI196
F0.00072833333333333333
sI197
F0.00064999999999999997
sI198
F0.00064333333333333332
sI199
F0.00067166666666666666
sI200
F0.00064999999999999997
sI201
F0.00064000000000000005
sI202
F0.00073166666666666671
sI203
F0.00063666666666666667
sI204
F0.0006466666666666667
sI205
F0.00068166666666666668
sI206
F0.00068499999999999995
sI207
F0.00065333333333333335
sI208
F0.00071500000000000003
sI209
F0.00062833333333333328
sI210
F0.00062666666666666665
sI211
F0.00062666666666666665
sI212
F0.00064833333333333334
sI213
F0.00066833333333333328
sI214
F0.00065833333333333336
sI215
F0.0006466666666666667
sI216
F0.00063500000000000004
sI217
F0.00068833333333333333
sI218
F0.00066333333333333337
sI219
F0.00066166666666666663
sI220
F0.0006466666666666667
sI221
F0.00068499999999999995
sI222
F0.00078333333333333336
sI223
F0.00067500000000000004
sI224
F0.00066333333333333337
sI225
F0.00064833333333333334
sI226
F0.00072166666666666668
sI227
F0.00065166666666666671
sI228
F0.00068166666666666668
sI229
F0.00061666666666666662
sI230
F0.00065333333333333335
sI231
F0.00053499999999999999
sI232
F0.00062
sI233
F0.00062666666666666665
sI234
F0.00060999999999999997
sI235
F0.00072499999999999995
sI236
F0.00071000000000000002
sI237
F0.00061499999999999999
sI238
F0.00072666666666666669
sI239
F0.00061333333333333335
sI240
F0.00069499999999999998
sI241
F0.00062500000000000001
sI242
F0.00063666666666666667
sI243
F0.00063666666666666667
sI244
F0.00065833333333333336
sI245
F0.00070333333333333337
sI246
F0.00060333333333333333
sI247
F0.00062
sI248
F0.00071666666666666667
sI249
F0.00071000000000000002
sI250
F0.00067666666666666667
sI251
F0.0006333333333333333
sI252
F0.0006466666666666667
sI253
F0.00071000000000000002
sI254
F0.00062500000000000001
sI255
F0.00070500000000000001
sI256
F0.00065166666666666671
sI257
F0.00066
sI258
F0.00069666666666666661
sI259
F0.00056833333333333334
sI260
F0.0006333333333333333
sI261
F0.00070500000000000001
sI262
F0.00066
sI263
F0.0006466666666666667
sI264
F0.00069833333333333336
sI265
F0.00067166666666666666
sI266
F0.00065166666666666671
sI267
F0.00062833333333333328
sI268
F0.00062833333333333328
sI269
F0.00072166666666666668
sI270
F0.00069166666666666671
sI271
F0.0006466666666666667
sI272
F0.00069333333333333334
sI273
F0.00069166666666666671
sI274
F0.00067666666666666667
sI275
F0.00063666666666666667
sI276
F0.00068166666666666668
sI277
F0.00067166666666666666
sI278
F0.0006866666666666667
sI279
F0.0006466666666666667
sI280
F0.00063000000000000003
sI281
F0.00064499999999999996
sI282
F0.00061333333333333335
sI283
F0.00062500000000000001
sI284
F0.00067500000000000004
sI285
F0.0006333333333333333
sI286
F0.00066
sI287
F0.00064333333333333332
sI288
F0.0006866666666666667
sI289
F0.00059999999999999995
sI290
F0.00063666666666666667
sI291
F0.00069166666666666671
sI292
F0.00067000000000000002
sI293
F0.00060166666666666669
sI294
F0.00077499999999999997
sI295
F0.00067333333333333329
sI296
F0.00072333333333333332
sI297
F0.00060166666666666669
sI298
F0.00066833333333333328
sI299
F0.00068166666666666668
sI300
F0.00063166666666666666
sI301
F0.00059666666666666668
sI302
F0.00061166666666666672
sI303
F0.0007583333333333333
sI304
F0.00064333333333333332
sI305
F0.00066333333333333337
sI306
F0.00061166666666666672
sI307
F0.00060999999999999997
sI308
F0.00068166666666666668
sI309
F0.00067666666666666667
sI310
F0.00074833333333333338
sI311
F0.00068166666666666668
sI312
F0.0006466666666666667
sI313
F0.00060166666666666669
sI314
F0.00066333333333333337
sI315
F0.00059833333333333331
sI316
F0.00068999999999999997
sI317
F0.00068166666666666668
sI318
F0.00068333333333333332
sI319
F0.00068833333333333333
sI320
F0.0006866666666666667
sI321
F0.00071666666666666667
ssg298
F0.21209
sstp305
a(g11
(tRp306
S'workload'
p307
g11
(tRp308
S'n_contents'
p309
I30000
sS'rank_per_group'
p310
I1
sS'name'
p311
S'DIFFRANK'
p312
sS'n_warmup'
p313
I60000
sS'rate'
p314
F300
sS'n_measured'
p315
I600000
sS'alpha'
p316
F1
sS'n_rank'
p317
I4
ssS'group'
p318
g11
(tRp319
g311
S'GROUP'
p320
ssS'cache_policy'
p321
g11
(tRp322
g311
S'LRU'
p323
ssS'content_placement'
p324
g11
(tRp325
g311
S'UNIFORM'
p326
ssS'strategy'
p327
g11
(tRp328
g311
S'NRR'
p329
ssS'rankgroup'
p330
g11
(tRp331
g311
S'4,GROUP'
p332
ssS'cache_placement'
p333
g11
(tRp334
S'network_cache'
p335
F0.02
sg311
g326
ssS'desc'
p336
S'Alpha: 1.0, strategy: NRR,  network cache: 0.02, topology: Edgefog, num of datastore: 1, rank&group: 4,GROUP. '
p337
sS'topology'
p338
g11
(tRp339
S'n_node'
p340
I320
sS'n_datastore'
p341
I1
sg311
S'EDGEFOG'
p342
sS'n_member'
p343
I80
ssg11
(tRp344
S'LATENCY'
p345
g11
(tRp346
S'MEAN'
p347
F40.637560000000001
ssS'CACHE_HIT_RATIO'
p348
g11
(tRp349
S'PER_NODE_SERVER_HIT_RATIO'
p350
g11
(tRp351
I0
F0.34510999999999997
ssS'PER_NODE_CACHE_HIT_RATIO'
p352
g11
(tRp353
I5
F0.0009366666666666667
sI6
F0.02222
sI7
F0.0021566666666666665
sI8
F0.0027766666666666669
sI9
F0.00091500000000000001
sI10
F0.00091666666666666665
sI11
F0.0016566666666666667
sI12
F0.0008833333333333333
sI13
F0.0014300000000000001
sI14
F0.0012316666666666667
sI15
F0.0012383333333333333
sI16
F0.0022266666666666667
sI17
F0.0018433333333333333
sI18
F0.00088666666666666668
sI19
F0.0015250000000000001
sI20
F0.00086166666666666661
sI21
F0.0012283333333333332
sI22
F0.0011249999999999999
sI23
F0.0012366666666666667
sI24
F0.0020899999999999998
sI25
F0.0017466666666666668
sI26
F0.0015116666666666666
sI27
F0.0013016666666666667
sI28
F0.0012516666666666668
sI29
F0.0012716666666666666
sI30
F0.00089499999999999996
sI31
F0.0010950000000000001
sI32
F0.014555
sI33
F0.0058650000000000004
sI34
F0.0033066666666666665
sI35
F0.0023483333333333333
sI36
F0.0017333333333333333
sI37
F0.0015950000000000001
sI38
F0.0014400000000000001
sI39
F0.00081666666666666671
sI40
F0.0023033333333333334
sI41
F0.0019250000000000001
sI42
F0.0016883333333333334
sI43
F0.0015666666666666667
sI44
F0.0013966666666666667
sI45
F0.001255
sI46
F0.0012483333333333333
sI47
F0.00115
sI48
F0.0023400000000000001
sI49
F0.00089166666666666669
sI50
F0.0015333333333333334
sI51
F0.0015066666666666666
sI52
F0.0013500000000000001
sI53
F0.0012033333333333334
sI54
F0.0012366666666666667
sI55
F0.0011033333333333333
sI56
F0.001885
sI57
F0.0015633333333333332
sI58
F0.00090666666666666662
sI59
F0.0015466666666666667
sI60
F0.00096333333333333329
sI61
F0.001235
sI62
F0.00093166666666666669
sI63
F0.00084000000000000003
sI64
F0.0081233333333333331
sI65
F0.0037016666666666665
sI66
F0.0026450000000000002
sI67
F0.0024933333333333335
sI68
F0.0022383333333333335
sI69
F0.00087333333333333338
sI70
F0.00092500000000000004
sI71
F0.0015200000000000001
sI72
F0.0020516666666666665
sI73
F0.0016999999999999999
sI74
F0.0014450000000000001
sI75
F0.0015399999999999999
sI76
F0.0013916666666666667
sI77
F0.001245
sI78
F0.0012149999999999999
sI79
F0.0012966666666666667
sI80
F0.0020416666666666665
sI81
F0.0016000000000000001
sI82
F0.0014733333333333334
sI83
F0.00099166666666666674
sI84
F0.00084166666666666667
sI85
F0.0013716666666666667
sI86
F0.0013633333333333334
sI87
F0.0011616666666666668
sI88
F0.0023249999999999998
sI89
F0.001885
sI90
F0.0017049999999999999
sI91
F0.0015200000000000001
sI92
F0.0012899999999999999
sI93
F0.0012483333333333333
sI94
F0.00117
sI95
F0.0012483333333333333
sI96
F0.015041666666666667
sI97
F0.00081999999999999998
sI98
F0.00083833333333333329
sI99
F0.0034833333333333335
sI100
F0.0020349999999999999
sI101
F0.0017416666666666668
sI102
F0.0013783333333333334
sI103
F0.00087333333333333338
sI104
F0.0024499999999999999
sI105
F0.0020466666666666667
sI106
F0.0017516666666666666
sI107
F0.0017066666666666667
sI108
F0.0014766666666666667
sI109
F0.00081666666666666671
sI110
F0.0013916666666666667
sI111
F0.0012049999999999999
sI112
F0.0022049999999999999
sI113
F0.0020233333333333331
sI114
F0.0016949999999999999
sI115
F0.0015483333333333334
sI116
F0.00125
sI117
F0.0012650000000000001
sI118
F0.0012899999999999999
sI119
F0.00095333333333333338
sI120
F0.0019250000000000001
sI121
F0.00086666666666666663
sI122
F0.0016016666666666666
sI123
F0.0016516666666666667
sI124
F0.0014400000000000001
sI125
F0.00099166666666666674
sI126
F0.00090666666666666662
sI127
F0.0012433333333333333
sI128
F0.00087000000000000001
sI129
F0.02547
sI130
F0.00085833333333333334
sI131
F0.0033833333333333332
sI132
F0.0026216666666666667
sI133
F0.00085499999999999997
sI134
F0.0018550000000000001
sI135
F0.00087500000000000002
sI136
F0.00084833333333333332
sI137
F0.0021949999999999999
sI138
F0.0019183333333333333
sI139
F0.0015950000000000001
sI140
F0.0015416666666666667
sI141
F0.0014433333333333334
sI142
F0.00085499999999999997
sI143
F0.00090833333333333337
sI144
F0.00092666666666666668
sI145
F0.0019416666666666666
sI146
F0.00079000000000000001
sI147
F0.0014883333333333333
sI148
F0.0014
sI149
F0.0016183333333333334
sI150
F0.0012666666666666666
sI151
F0.0013466666666666666
sI152
F0.00090666666666666662
sI153
F0.0018
sI154
F0.00081999999999999998
sI155
F0.001645
sI156
F0.00091333333333333338
sI157
F0.0012616666666666666
sI158
F0.0012383333333333333
sI159
F0.0012533333333333333
sI160
F0.0077099999999999998
sI161
F0.0035999999999999999
sI162
F0.00083166666666666664
sI163
F0.0023566666666666666
sI164
F0.0023016666666666667
sI165
F0.021921666666666666
sI166
F0.0024099999999999998
sI167
F0.00085833333333333334
sI168
F0.00092666666666666668
sI169
F0.00088166666666666667
sI170
F0.0020449999999999999
sI171
F0.0018366666666666666
sI172
F0.0015516666666666667
sI173
F0.0014266666666666666
sI174
F0.0013466666666666666
sI175
F0.0012366666666666667
sI176
F0.0021983333333333334
sI177
F0.00083000000000000001
sI178
F0.00083833333333333329
sI179
F0.00085666666666666671
sI180
F0.0013883333333333334
sI181
F0.00086333333333333336
sI182
F0.0012516666666666668
sI183
F0.0011916666666666666
sI184
F0.0023
sI185
F0.0019516666666666667
sI186
F0.001725
sI187
F0.0015
sI188
F0.0014283333333333333
sI189
F0.00086499999999999999
sI190
F0.00124
sI191
F0.00087166666666666664
sI192
F0.014748333333333334
sI193
F0.0054833333333333331
sI194
F0.0034633333333333335
sI195
F0.0023
sI196
F0.0020416666666666665
sI197
F0.0019250000000000001
sI198
F0.0017266666666666667
sI199
F0.00082166666666666662
sI200
F0.00092000000000000003
sI201
F0.00085499999999999997
sI202
F0.00173
sI203
F0.00157
sI204
F0.00078833333333333338
sI205
F0.00086333333333333336
sI206
F0.0013666666666666666
sI207
F0.0012116666666666667
sI208
F0.00085666666666666671
sI209
F0.0019599999999999999
sI210
F0.0017333333333333333
sI211
F0.001565
sI212
F0.0014566666666666667
sI213
F0.00132
sI214
F0.0014649999999999999
sI215
F0.00090333333333333335
sI216
F0.0020983333333333331
sI217
F0.0016583333333333333
sI218
F0.0015733333333333333
sI219
F0.0015133333333333333
sI220
F0.00092833333333333331
sI221
F0.001395
sI222
F0.00086833333333333337
sI223
F0.0012133333333333334
sI224
F0.0084766666666666671
sI225
F0.0045966666666666664
sI226
F0.0027766666666666669
sI227
F0.0022016666666666669
sI228
F0.0008516666666666667
sI229
F0.00090499999999999999
sI230
F0.0016916666666666666
sI231
F0.0015
sI232
F0.0020266666666666666
sI233
F0.0018633333333333334
sI234
F0.00088500000000000004
sI235
F0.0015683333333333333
sI236
F0.00088000000000000003
sI237
F0.0014166666666666668
sI238
F0.0013866666666666667
sI239
F0.0013266666666666667
sI240
F0.00085666666666666671
sI241
F0.0016583333333333333
sI242
F0.00092166666666666666
sI243
F0.00088999999999999995
sI244
F0.00147
sI245
F0.0013550000000000001
sI246
F0.0013266666666666667
sI247
F0.0011766666666666666
sI248
F0.0019849999999999998
sI249
F0.0019566666666666665
sI250
F0.00093833333333333334
sI251
F0.00092666666666666668
sI252
F0.0014383333333333333
sI253
F0.001325
sI254
F0.0012083333333333334
sI255
F0.0012033333333333334
sI256
F0.00089666666666666671
sI257
F0.00091333333333333338
sI258
F0.024236666666666667
sI259
F0.00089833333333333334
sI260
F0.0036483333333333333
sI261
F0.0021949999999999999
sI262
F0.0015916666666666666
sI263
F0.00099666666666666675
sI264
F0.00086833333333333337
sI265
F0.0021166666666666669
sI266
F0.00087500000000000002
sI267
F0.00083666666666666666
sI268
F0.001555
sI269
F0.00092833333333333331
sI270
F0.001245
sI271
F0.0012233333333333334
sI272
F0.00087333333333333338
sI273
F0.00089166666666666669
sI274
F0.0017266666666666667
sI275
F0.00156
sI276
F0.0013116666666666667
sI277
F0.0012216666666666667
sI278
F0.0012516666666666668
sI279
F0.0012833333333333334
sI280
F0.0022899999999999999
sI281
F0.0017966666666666667
sI282
F0.0016733333333333333
sI283
F0.00092166666666666666
sI284
F0.0013866666666666667
sI285
F0.0012899999999999999
sI286
F0.001315
sI287
F0.0011850000000000001
sI288
F0.013703333333333333
sI289
F0.0058349999999999999
sI290
F0.00088000000000000003
sI291
F0.0026900000000000001
sI292
F0.0020483333333333334
sI293
F0.0016033333333333333
sI294
F0.0015633333333333332
sI295
F0.001505
sI296
F0.0023733333333333332
sI297
F0.0019416666666666666
sI298
F0.00172
sI299
F0.0017333333333333333
sI300
F0.0015399999999999999
sI301
F0.0013766666666666667
sI302
F0.0013266666666666667
sI303
F0.000825
sI304
F0.0021800000000000001
sI305
F0.0017733333333333334
sI306
F0.00167
sI307
F0.00087000000000000001
sI308
F0.0015333333333333334
sI309
F0.0011816666666666666
sI310
F0.00087500000000000002
sI311
F0.0013566666666666666
sI312
F0.0021133333333333334
sI313
F0.00089999999999999998
sI314
F0.0015950000000000001
sI315
F0.00088999999999999995
sI316
F0.00080500000000000005
sI317
F0.0013166666666666667
sI318
F0.0014416666666666666
sI319
F0.00094166666666666672
sI320
F0.0070583333333333331
sI321
F0.0037766666666666665
sI322
F0.0027000000000000001
sI323
F0.0025083333333333333
sI324
F0.0019266666666666666
ssg347
F0.65488999999999997
sstp354
a(g11
(tRp355
S'workload'
p356
g11
(tRp357
S'n_contents'
p358
I30000
sS'rank_per_group'
p359
I4
sS'name'
p360
S'DIFFRANK'
p361
sS'n_warmup'
p362
I60000
sS'rate'
p363
F300
sS'n_measured'
p364
I600000
sS'alpha'
p365
F1
sS'n_rank'
p366
I4
ssS'group'
p367
g11
(tRp368
g360
S'NOTGROUP'
p369
ssS'cache_policy'
p370
g11
(tRp371
g360
S'LRU'
p372
ssS'content_placement'
p373
g11
(tRp374
g360
S'UNIFORM'
p375
ssS'strategy'
p376
g11
(tRp377
g360
S'NRR'
p378
ssS'rankgroup'
p379
g11
(tRp380
g360
S'4,NOTGROUP'
p381
ssS'cache_placement'
p382
g11
(tRp383
S'network_cache'
p384
F0.02
sg360
g375
ssS'desc'
p385
S'Alpha: 1.0, strategy: NRR,  network cache: 0.02, topology: Edgefog, num of datastore: 1, rank&group: 4,NOTGROUP. '
p386
sS'topology'
p387
g11
(tRp388
S'n_node'
p389
I320
sS'n_datastore'
p390
I1
sg360
S'EDGEFOG'
p391
sS'n_member'
p392
I320
ssg11
(tRp393
S'LATENCY'
p394
g11
(tRp395
S'MEAN'
p396
F62.109808667169339
ssS'CACHE_HIT_RATIO'
p397
g11
(tRp398
S'PER_NODE_SERVER_HIT_RATIO'
p399
g11
(tRp400
I0
F0.7172033333333333
ssS'PER_NODE_CACHE_HIT_RATIO'
p401
g11
(tRp402
I2
F0.00089333333333333333
sI3
F0.00092666666666666668
sI4
F0.0009233333333333333
sI5
F0.00083333333333333339
sI6
F0.00084833333333333332
sI7
F0.00080333333333333331
sI8
F0.00085999999999999998
sI9
F0.00091
sI10
F0.00091
sI11
F0.00094499999999999998
sI12
F0.00091333333333333338
sI13
F0.00086833333333333337
sI14
F0.00088999999999999995
sI15
F0.00086166666666666661
sI16
F0.00090833333333333337
sI17
F0.00091500000000000001
sI18
F0.001005
sI19
F0.00087833333333333329
sI20
F0.00089833333333333334
sI21
F0.00077499999999999997
sI22
F0.00089999999999999998
sI23
F0.00088166666666666667
sI24
F0.00086333333333333336
sI25
F0.00085999999999999998
sI26
F0.00090833333333333337
sI27
F0.00088500000000000004
sI28
F0.00088500000000000004
sI29
F0.00080666666666666669
sI30
F0.00085833333333333334
sI31
F0.00084000000000000003
sI32
F0.00092500000000000004
sI33
F0.00087833333333333329
sI34
F0.00095500000000000001
sI35
F0.00084666666666666668
sI36
F0.0008516666666666667
sI37
F0.00084833333333333332
sI38
F0.0009233333333333333
sI39
F0.00088666666666666668
sI40
F0.00088833333333333331
sI41
F0.00085999999999999998
sI42
F0.000785
sI43
F0.00090166666666666672
sI44
F0.00082333333333333336
sI45
F0.00091666666666666665
sI46
F0.0008833333333333333
sI47
F0.00090333333333333335
sI48
F0.00085666666666666671
sI49
F0.00091833333333333328
sI50
F0.00087166666666666664
sI51
F0.00073499999999999998
sI52
F0.00087500000000000002
sI53
F0.00085999999999999998
sI54
F0.00083666666666666666
sI55
F0.00090333333333333335
sI56
F0.00085999999999999998
sI57
F0.00089666666666666671
sI58
F0.00088500000000000004
sI59
F0.00092666666666666668
sI60
F0.0008833333333333333
sI61
F0.00086833333333333337
sI62
F0.00088166666666666667
sI63
F0.00089833333333333334
sI64
F0.00090333333333333335
sI65
F0.00086499999999999999
sI66
F0.00092000000000000003
sI67
F0.00091500000000000001
sI68
F0.00080500000000000005
sI69
F0.00091333333333333338
sI70
F0.00096166666666666666
sI71
F0.00090666666666666662
sI72
F0.0008433333333333333
sI73
F0.00089833333333333334
sI74
F0.00089499999999999996
sI75
F0.00090166666666666672
sI76
F0.00084666666666666668
sI77
F0.0008516666666666667
sI78
F0.00088166666666666667
sI79
F0.00089499999999999996
sI80
F0.00091833333333333328
sI81
F0.00080166666666666667
sI82
F0.00093499999999999996
sI83
F0.00085666666666666671
sI84
F0.00092166666666666666
sI85
F0.00092833333333333331
sI86
F0.00093000000000000005
sI87
F0.00092000000000000003
sI88
F0.00086833333333333337
sI89
F0.00089499999999999996
sI90
F0.0008833333333333333
sI91
F0.00092666666666666668
sI92
F0.00091166666666666664
sI93
F0.00094499999999999998
sI94
F0.0009233333333333333
sI95
F0.00088500000000000004
sI96
F0.00089999999999999998
sI97
F0.00081666666666666671
sI98
F0.00087666666666666665
sI99
F0.000825
sI100
F0.00079166666666666665
sI101
F0.00093000000000000005
sI102
F0.00084500000000000005
sI103
F0.00084000000000000003
sI104
F0.00085499999999999997
sI105
F0.00095166666666666663
sI106
F0.00085333333333333333
sI107
F0.00091666666666666665
sI108
F0.00084666666666666668
sI109
F0.0008433333333333333
sI110
F0.00084500000000000005
sI111
F0.00086833333333333337
sI112
F0.00082833333333333337
sI113
F0.00081666666666666671
sI114
F0.00093999999999999997
sI115
F0.00088000000000000003
sI116
F0.00091500000000000001
sI117
F0.00093999999999999997
sI118
F0.00089166666666666669
sI119
F0.00093166666666666669
sI120
F0.00084833333333333332
sI121
F0.00093000000000000005
sI122
F0.00075000000000000002
sI123
F0.00084999999999999995
sI124
F0.00085333333333333333
sI125
F0.00086666666666666663
sI126
F0.00087166666666666664
sI127
F0.00092500000000000004
sI128
F0.00096000000000000002
sI129
F0.00085999999999999998
sI130
F0.00085999999999999998
sI131
F0.00090833333333333337
sI132
F0.00085999999999999998
sI133
F0.00088500000000000004
sI134
F0.00092666666666666668
sI135
F0.00088999999999999995
sI136
F0.00092833333333333331
sI137
F0.00090166666666666672
sI138
F0.00089333333333333333
sI139
F0.00082666666666666663
sI140
F0.00090499999999999999
sI141
F0.00081499999999999997
sI142
F0.00084999999999999995
sI143
F0.00095666666666666665
sI144
F0.00078166666666666662
sI145
F0.00087166666666666664
sI146
F0.00086333333333333336
sI147
F0.00086166666666666661
sI148
F0.00083500000000000002
sI149
F0.00088666666666666668
sI150
F0.00091166666666666664
sI151
F0.00087000000000000001
sI152
F0.00090166666666666672
sI153
F0.0008833333333333333
sI154
F0.00085333333333333333
sI155
F0.00093166666666666669
sI156
F0.00088000000000000003
sI157
F0.00092833333333333331
sI158
F0.00086333333333333336
sI159
F0.00084000000000000003
sI160
F0.00090499999999999999
sI161
F0.00093000000000000005
sI162
F0.00083500000000000002
sI163
F0.00087666666666666665
sI164
F0.00085499999999999997
sI165
F0.00092500000000000004
sI166
F0.00092000000000000003
sI167
F0.0008116666666666667
sI168
F0.00082666666666666663
sI169
F0.00082666666666666663
sI170
F0.0008833333333333333
sI171
F0.00085833333333333334
sI172
F0.00084833333333333332
sI173
F0.00096166666666666666
sI174
F0.00086333333333333336
sI175
F0.00087666666666666665
sI176
F0.00087666666666666665
sI177
F0.00094166666666666672
sI178
F0.00095
sI179
F0.00090333333333333335
sI180
F0.00085499999999999997
sI181
F0.00087833333333333329
sI182
F0.00088999999999999995
sI183
F0.00093499999999999996
sI184
F0.00096166666666666666
sI185
F0.00095
sI186
F0.00088833333333333331
sI187
F0.00090333333333333335
sI188
F0.00088833333333333331
sI189
F0.00081999999999999998
sI190
F0.00084666666666666668
sI191
F0.00092166666666666666
sI192
F0.00088166666666666667
sI193
F0.00088000000000000003
sI194
F0.00084166666666666667
sI195
F0.00088833333333333331
sI196
F0.00091666666666666665
sI197
F0.00086499999999999999
sI198
F0.0008433333333333333
sI199
F0.0008516666666666667
sI200
F0.00079000000000000001
sI201
F0.00094166666666666672
sI202
F0.00088500000000000004
sI203
F0.00083000000000000001
sI204
F0.00081333333333333333
sI205
F0.00088833333333333331
sI206
F0.00089999999999999998
sI207
F0.00089499999999999996
sI208
F0.00099666666666666675
sI209
F0.00082166666666666662
sI210
F0.0008516666666666667
sI211
F0.00085499999999999997
sI212
F0.00086499999999999999
sI213
F0.00087166666666666664
sI214
F0.0008516666666666667
sI215
F0.00095500000000000001
sI216
F0.0008433333333333333
sI217
F0.00090666666666666662
sI218
F0.00091666666666666665
sI219
F0.00087666666666666665
sI220
F0.0010183333333333333
sI221
F0.00083666666666666666
sI222
F0.00095500000000000001
sI223
F0.0008516666666666667
sI224
F0.00087833333333333329
sI225
F0.00090833333333333337
sI226
F0.00092666666666666668
sI227
F0.00086333333333333336
sI228
F0.00082333333333333336
sI229
F0.00084166666666666667
sI230
F0.00090166666666666672
sI231
F0.00084833333333333332
sI232
F0.00090166666666666672
sI233
F0.00084833333333333332
sI234
F0.00085666666666666671
sI235
F0.0009766666666666667
sI236
F0.00093833333333333334
sI237
F0.00095
sI238
F0.00088166666666666667
sI239
F0.00090166666666666672
sI240
F0.00090666666666666662
sI241
F0.00090499999999999999
sI242
F0.0009366666666666667
sI243
F0.00088500000000000004
sI244
F0.00088000000000000003
sI245
F0.00086499999999999999
sI246
F0.00092833333333333331
sI247
F0.00087666666666666665
sI248
F0.00096500000000000004
sI249
F0.00090499999999999999
sI250
F0.00092166666666666666
sI251
F0.00095
sI252
F0.00089333333333333333
sI253
F0.00088999999999999995
sI254
F0.00096500000000000004
sI255
F0.00083833333333333329
sI256
F0.00081333333333333333
sI257
F0.00089666666666666671
sI258
F0.00091166666666666664
sI259
F0.00089999999999999998
sI260
F0.00093166666666666669
sI261
F0.00086166666666666661
sI262
F0.00089333333333333333
sI263
F0.00080833333333333332
sI264
F0.00085499999999999997
sI265
F0.00092833333333333331
sI266
F0.00090499999999999999
sI267
F0.0009233333333333333
sI268
F0.00093166666666666669
sI269
F0.00082333333333333336
sI270
F0.000825
sI271
F0.00091166666666666664
sI272
F0.00087666666666666665
sI273
F0.00087333333333333338
sI274
F0.000825
sI275
F0.00081499999999999997
sI276
F0.00086666666666666663
sI277
F0.00087666666666666665
sI278
F0.00092500000000000004
sI279
F0.00087833333333333329
sI280
F0.00090833333333333337
sI281
F0.00087000000000000001
sI282
F0.00088000000000000003
sI283
F0.00087500000000000002
sI284
F0.00081666666666666671
sI285
F0.00091500000000000001
sI286
F0.00083000000000000001
sI287
F0.00085499999999999997
sI288
F0.00084000000000000003
sI289
F0.00077499999999999997
sI290
F0.00087833333333333329
sI291
F0.00089999999999999998
sI292
F0.00088833333333333331
sI293
F0.00092833333333333331
sI294
F0.00088500000000000004
sI295
F0.00087666666666666665
sI296
F0.00087833333333333329
sI297
F0.00092500000000000004
sI298
F0.00082666666666666663
sI299
F0.00082166666666666662
sI300
F0.00087666666666666665
sI301
F0.00091
sI302
F0.00092666666666666668
sI303
F0.00090833333333333337
sI304
F0.00097166666666666669
sI305
F0.00085666666666666671
sI306
F0.00089333333333333333
sI307
F0.00088500000000000004
sI308
F0.00088000000000000003
sI309
F0.00087666666666666665
sI310
F0.00098833333333333325
sI311
F0.00086499999999999999
sI312
F0.00088000000000000003
sI313
F0.00091500000000000001
sI314
F0.00090499999999999999
sI315
F0.00085333333333333333
sI316
F0.00093999999999999997
sI317
F0.00096500000000000004
sI318
F0.00089999999999999998
sI319
F0.00090833333333333337
sI320
F0.00084166666666666667
sI321
F0.00088833333333333331
ssg396
F0.28279666666666664
sstp403
a(g11
(tRp404
S'workload'
p405
g11
(tRp406
S'n_contents'
p407
I30000
sS'rank_per_group'
p408
I32
sS'name'
p409
S'DIFFRANK'
p410
sS'n_warmup'
p411
I60000
sS'rate'
p412
F300
sS'n_measured'
p413
I600000
sS'alpha'
p414
F1
sS'n_rank'
p415
I32
ssS'group'
p416
g11
(tRp417
g409
S'NOTGROUP'
p418
ssS'cache_policy'
p419
g11
(tRp420
g409
S'LRU'
p421
ssS'content_placement'
p422
g11
(tRp423
g409
S'UNIFORM'
p424
ssS'strategy'
p425
g11
(tRp426
g409
S'NRR'
p427
ssS'rankgroup'
p428
g11
(tRp429
g409
S'32,NOTGROUP'
p430
ssS'cache_placement'
p431
g11
(tRp432
S'network_cache'
p433
F0.029999999999999999
sg409
g424
ssS'desc'
p434
S'Alpha: 1.0, strategy: NRR,  network cache: 0.03, topology: Edgefog, num of datastore: 1, rank&group: 32,NOTGROUP. '
p435
sS'topology'
p436
g11
(tRp437
S'n_node'
p438
I320
sS'n_datastore'
p439
I1
sg409
S'EDGEFOG'
p440
sS'n_member'
p441
I320
ssg11
(tRp442
S'LATENCY'
p443
g11
(tRp444
S'MEAN'
p445
F58.438546000439501
ssS'CACHE_HIT_RATIO'
p446
g11
(tRp447
S'PER_NODE_SERVER_HIT_RATIO'
p448
g11
(tRp449
I0
F0.67481000000000002
ssS'PER_NODE_CACHE_HIT_RATIO'
p450
g11
(tRp451
I2
F0.00099833333333333328
sI3
F0.00095833333333333328
sI4
F0.00098833333333333325
sI5
F0.00095666666666666665
sI6
F0.0010449999999999999
sI7
F0.0010566666666666667
sI8
F0.0010566666666666667
sI9
F0.00098499999999999998
sI10
F0.0010499999999999999
sI11
F0.0010583333333333334
sI12
F0.00089499999999999996
sI13
F0.0009766666666666667
sI14
F0.00096666666666666667
sI15
F0.0010466666666666667
sI16
F0.00096666666666666667
sI17
F0.0010250000000000001
sI18
F0.00096666666666666667
sI19
F0.0010116666666666666
sI20
F0.0009766666666666667
sI21
F0.001005
sI22
F0.0009366666666666667
sI23
F0.00097000000000000005
sI24
F0.0010449999999999999
sI25
F0.0010933333333333333
sI26
F0.0011083333333333333
sI27
F0.00097000000000000005
sI28
F0.00099333333333333326
sI29
F0.0010683333333333332
sI30
F0.0010566666666666667
sI31
F0.00107
sI32
F0.0010399999999999999
sI33
F0.00098999999999999999
sI34
F0.00096666666666666667
sI35
F0.00097333333333333332
sI36
F0.00096833333333333331
sI37
F0.001005
sI38
F0.0010549999999999999
sI39
F0.00093000000000000005
sI40
F0.001005
sI41
F0.0010233333333333333
sI42
F0.0010666666666666667
sI43
F0.0010449999999999999
sI44
F0.0010300000000000001
sI45
F0.0010499999999999999
sI46
F0.0010250000000000001
sI47
F0.0010733333333333333
sI48
F0.00098333333333333324
sI49
F0.0010466666666666667
sI50
F0.00101
sI51
F0.0010383333333333334
sI52
F0.001065
sI53
F0.0010466666666666667
sI54
F0.0010549999999999999
sI55
F0.0010433333333333334
sI56
F0.0010266666666666666
sI57
F0.00096666666666666667
sI58
F0.0010283333333333334
sI59
F0.0010549999999999999
sI60
F0.0010316666666666666
sI61
F0.0010166666666666666
sI62
F0.0010133333333333333
sI63
F0.0010166666666666666
sI64
F0.0010166666666666666
sI65
F0.00091
sI66
F0.00099666666666666675
sI67
F0.0010116666666666666
sI68
F0.0011349999999999999
sI69
F0.0010549999999999999
sI70
F0.0010083333333333333
sI71
F0.0010499999999999999
sI72
F0.0010416666666666667
sI73
F0.0010399999999999999
sI74
F0.0010116666666666666
sI75
F0.00099833333333333328
sI76
F0.0009766666666666667
sI77
F0.00099833333333333328
sI78
F0.00098166666666666671
sI79
F0.0010200000000000001
sI80
F0.0010333333333333334
sI81
F0.00098666666666666672
sI82
F0.00108
sI83
F0.0010300000000000001
sI84
F0.00094833333333333336
sI85
F0.00101
sI86
F0.0010533333333333334
sI87
F0.00099166666666666674
sI88
F0.0010033333333333333
sI89
F0.0010516666666666667
sI90
F0.0010133333333333333
sI91
F0.0010533333333333334
sI92
F0.00094833333333333336
sI93
F0.0010133333333333333
sI94
F0.00095500000000000001
sI95
F0.001
sI96
F0.00108
sI97
F0.00095833333333333328
sI98
F0.0010016666666666668
sI99
F0.00095
sI100
F0.0010116666666666666
sI101
F0.00097999999999999997
sI102
F0.0010499999999999999
sI103
F0.0010399999999999999
sI104
F0.0010166666666666666
sI105
F0.00093333333333333332
sI106
F0.0010399999999999999
sI107
F0.00097833333333333323
sI108
F0.00099500000000000001
sI109
F0.00091500000000000001
sI110
F0.0010466666666666667
sI111
F0.0010349999999999999
sI112
F0.00098833333333333325
sI113
F0.0010549999999999999
sI114
F0.00097499999999999996
sI115
F0.0010333333333333334
sI116
F0.0010166666666666666
sI117
F0.00093000000000000005
sI118
F0.001
sI119
F0.0010083333333333333
sI120
F0.00099166666666666674
sI121
F0.00095
sI122
F0.0010266666666666666
sI123
F0.00097166666666666669
sI124
F0.0010433333333333334
sI125
F0.0010033333333333333
sI126
F0.00099666666666666675
sI127
F0.0009366666666666667
sI128
F0.0010033333333333333
sI129
F0.00098833333333333325
sI130
F0.001155
sI131
F0.0010816666666666668
sI132
F0.0010133333333333333
sI133
F0.00099500000000000001
sI134
F0.00095500000000000001
sI135
F0.0010166666666666666
sI136
F0.00095
sI137
F0.0010549999999999999
sI138
F0.0010200000000000001
sI139
F0.0010399999999999999
sI140
F0.0010433333333333334
sI141
F0.0010950000000000001
sI142
F0.0010133333333333333
sI143
F0.00099833333333333328
sI144
F0.0010716666666666667
sI145
F0.0010233333333333333
sI146
F0.00099166666666666674
sI147
F0.0010666666666666667
sI148
F0.00093999999999999997
sI149
F0.00098999999999999999
sI150
F0.00098499999999999998
sI151
F0.0010316666666666666
sI152
F0.0009766666666666667
sI153
F0.00097000000000000005
sI154
F0.00099666666666666675
sI155
F0.0010950000000000001
sI156
F0.0010433333333333334
sI157
F0.00093833333333333334
sI158
F0.00098666666666666672
sI159
F0.00098333333333333324
sI160
F0.00098499999999999998
sI161
F0.0011850000000000001
sI162
F0.0011133333333333334
sI163
F0.0010133333333333333
sI164
F0.0010933333333333333
sI165
F0.0010200000000000001
sI166
F0.00096833333333333331
sI167
F0.00096333333333333329
sI168
F0.0010200000000000001
sI169
F0.0010349999999999999
sI170
F0.00098999999999999999
sI171
F0.0010300000000000001
sI172
F0.00106
sI173
F0.0010483333333333334
sI174
F0.00096000000000000002
sI175
F0.00099166666666666674
sI176
F0.0010266666666666666
sI177
F0.00097499999999999996
sI178
F0.0010566666666666667
sI179
F0.00098499999999999998
sI180
F0.0010683333333333332
sI181
F0.00097000000000000005
sI182
F0.00096166666666666666
sI183
F0.0010383333333333334
sI184
F0.00097999999999999997
sI185
F0.0010283333333333334
sI186
F0.001005
sI187
F0.00099166666666666674
sI188
F0.0010266666666666666
sI189
F0.0010200000000000001
sI190
F0.00098333333333333324
sI191
F0.0010166666666666666
sI192
F0.0010316666666666666
sI193
F0.00096333333333333329
sI194
F0.00090166666666666672
sI195
F0.0010333333333333334
sI196
F0.0010233333333333333
sI197
F0.00096000000000000002
sI198
F0.0010083333333333333
sI199
F0.0010516666666666667
sI200
F0.001005
sI201
F0.001005
sI202
F0.0010333333333333334
sI203
F0.00107
sI204
F0.00095333333333333338
sI205
F0.00097333333333333332
sI206
F0.00096500000000000004
sI207
F0.0010116666666666666
sI208
F0.00098999999999999999
sI209
F0.0010683333333333332
sI210
F0.00096666666666666667
sI211
F0.0010183333333333333
sI212
F0.0010116666666666666
sI213
F0.0010449999999999999
sI214
F0.00095
sI215
F0.0011100000000000001
sI216
F0.0010333333333333334
sI217
F0.0010966666666666666
sI218
F0.00098499999999999998
sI219
F0.00099833333333333328
sI220
F0.00101
sI221
F0.001065
sI222
F0.0010283333333333334
sI223
F0.0010533333333333334
sI224
F0.0010200000000000001
sI225
F0.0010083333333333333
sI226
F0.0010516666666666667
sI227
F0.0010516666666666667
sI228
F0.00099500000000000001
sI229
F0.0010833333333333333
sI230
F0.00092166666666666666
sI231
F0.0010250000000000001
sI232
F0.00099333333333333326
sI233
F0.0010449999999999999
sI234
F0.0010166666666666666
sI235
F0.00096000000000000002
sI236
F0.0010066666666666666
sI237
F0.00106
sI238
F0.00098333333333333324
sI239
F0.0010250000000000001
sI240
F0.0010383333333333334
sI241
F0.0010200000000000001
sI242
F0.00094499999999999998
sI243
F0.001
sI244
F0.00099500000000000001
sI245
F0.0010383333333333334
sI246
F0.00093333333333333332
sI247
F0.0011033333333333333
sI248
F0.00098666666666666672
sI249
F0.00099833333333333328
sI250
F0.00093833333333333334
sI251
F0.0010116666666666666
sI252
F0.0010966666666666666
sI253
F0.0010283333333333334
sI254
F0.0010283333333333334
sI255
F0.0010633333333333332
sI256
F0.00097000000000000005
sI257
F0.0011216666666666666
sI258
F0.0010466666666666667
sI259
F0.0010816666666666668
sI260
F0.00099833333333333328
sI261
F0.00095333333333333338
sI262
F0.0011183333333333334
sI263
F0.001065
sI264
F0.001065
sI265
F0.001005
sI266
F0.0010383333333333334
sI267
F0.00099500000000000001
sI268
F0.001
sI269
F0.00090166666666666672
sI270
F0.0010566666666666667
sI271
F0.0010183333333333333
sI272
F0.0010349999999999999
sI273
F0.0010150000000000001
sI274
F0.0010833333333333333
sI275
F0.0010250000000000001
sI276
F0.001005
sI277
F0.00099166666666666674
sI278
F0.001065
sI279
F0.00096000000000000002
sI280
F0.0010316666666666666
sI281
F0.0010783333333333333
sI282
F0.0010683333333333332
sI283
F0.0010150000000000001
sI284
F0.00101
sI285
F0.0010349999999999999
sI286
F0.0010333333333333334
sI287
F0.0010616666666666667
sI288
F0.00098999999999999999
sI289
F0.00098333333333333324
sI290
F0.00097000000000000005
sI291
F0.00099500000000000001
sI292
F0.0010183333333333333
sI293
F0.001065
sI294
F0.0010250000000000001
sI295
F0.0010399999999999999
sI296
F0.0010150000000000001
sI297
F0.0011233333333333334
sI298
F0.00096333333333333329
sI299
F0.0011000000000000001
sI300
F0.00098166666666666671
sI301
F0.0010150000000000001
sI302
F0.00098499999999999998
sI303
F0.0010533333333333334
sI304
F0.0010116666666666666
sI305
F0.0010066666666666666
sI306
F0.0010616666666666667
sI307
F0.0010250000000000001
sI308
F0.0010333333333333334
sI309
F0.0011083333333333333
sI310
F0.0010766666666666667
sI311
F0.0010816666666666668
sI312
F0.0010150000000000001
sI313
F0.0010499999999999999
sI314
F0.00099500000000000001
sI315
F0.0010083333333333333
sI316
F0.00099666666666666675
sI317
F0.00099166666666666674
sI318
F0.0010166666666666666
sI319
F0.0010033333333333333
sI320
F0.0010516666666666667
sI321
F0.00099666666666666675
ssg445
F0.32518999999999998
sstp452
a(g11
(tRp453
S'workload'
p454
g11
(tRp455
S'n_contents'
p456
I30000
sS'rank_per_group'
p457
I1
sS'name'
p458
S'DIFFRANK'
p459
sS'n_warmup'
p460
I60000
sS'rate'
p461
F300
sS'n_measured'
p462
I600000
sS'alpha'
p463
F1
sS'n_rank'
p464
I32
ssS'group'
p465
g11
(tRp466
g458
S'GROUP'
p467
ssS'cache_policy'
p468
g11
(tRp469
g458
S'LRU'
p470
ssS'content_placement'
p471
g11
(tRp472
g458
S'UNIFORM'
p473
ssS'strategy'
p474
g11
(tRp475
g458
S'NRR'
p476
ssS'rankgroup'
p477
g11
(tRp478
g458
S'32,GROUP'
p479
ssS'cache_placement'
p480
g11
(tRp481
S'network_cache'
p482
F0.029999999999999999
sg458
g473
ssS'desc'
p483
S'Alpha: 1.0, strategy: NRR,  network cache: 0.03, topology: Edgefog, num of datastore: 1, rank&group: 32,GROUP. '
p484
sS'topology'
p485
g11
(tRp486
S'n_node'
p487
I320
sS'n_datastore'
p488
I1
sg458
S'EDGEFOG'
p489
sS'n_member'
p490
I10
ssg11
(tRp491
S'LATENCY'
p492
g11
(tRp493
S'MEAN'
p494
F40.381073333333333
ssS'CACHE_HIT_RATIO'
p495
g11
(tRp496
S'PER_NODE_SERVER_HIT_RATIO'
p497
g11
(tRp498
I0
F0.47743333333333332
ssS'PER_NODE_CACHE_HIT_RATIO'
p499
g11
(tRp500
I33
F0.0031583333333333333
sI34
F0.001575
sI35
F0.0014333333333333333
sI36
F0.0013716666666666667
sI37
F0.0013883333333333334
sI38
F0.0013066666666666667
sI39
F0.0012800000000000001
sI40
F0.0021749999999999999
sI41
F0.0016916666666666666
sI42
F0.00098333333333333324
sI43
F0.0026433333333333335
sI44
F0.0014433333333333334
sI45
F0.0013183333333333332
sI46
F0.00098833333333333325
sI47
F0.00123
sI48
F0.0021716666666666668
sI49
F0.0018383333333333333
sI50
F0.0014666666666666667
sI51
F0.0016316666666666667
sI52
F0.0014083333333333333
sI53
F0.00249
sI54
F0.00147
sI55
F0.0013016666666666667
sI56
F0.0022633333333333333
sI57
F0.0018916666666666667
sI58
F0.0018683333333333334
sI59
F0.0015200000000000001
sI60
F0.0014916666666666667
sI61
F0.0012816666666666666
sI62
F0.0010116666666666666
sI63
F0.0012600000000000001
sI64
F0.0035616666666666665
sI65
F0.0017216666666666667
sI66
F0.0010300000000000001
sI67
F0.0015349999999999999
sI68
F0.0014516666666666666
sI69
F0.0013733333333333334
sI70
F0.0013366666666666666
sI71
F0.00099333333333333326
sI72
F0.0017600000000000001
sI73
F0.00097999999999999997
sI74
F0.0028266666666666666
sI75
F0.0014966666666666668
sI76
F0.0010166666666666666
sI77
F0.0014283333333333333
sI78
F0.0013033333333333334
sI79
F0.0012583333333333333
sI80
F0.0022116666666666665
sI81
F0.0017666666666666666
sI82
F0.00157
sI83
F0.0026099999999999999
sI84
F0.00157
sI85
F0.0014916666666666667
sI86
F0.00134
sI87
F0.0011366666666666667
sI88
F0.00216
sI89
F0.0019
sI90
F0.0016833333333333333
sI91
F0.0010216666666666666
sI92
F0.00093999999999999997
sI93
F0.0013933333333333332
sI94
F0.0012266666666666667
sI95
F0.001255
sI96
F0.0034366666666666669
sI97
F0.0019300000000000001
sI98
F0.0017066666666666667
sI99
F0.0014549999999999999
sI100
F0.0015066666666666666
sI101
F0.0013216666666666667
sI102
F0.00094666666666666662
sI103
F0.0023783333333333334
sI104
F0.0023266666666666666
sI105
F0.0017733333333333334
sI106
F0.0016266666666666667
sI107
F0.0014549999999999999
sI108
F0.0013699999999999999
sI109
F0.0013483333333333333
sI110
F0.0012833333333333334
sI111
F0.00097000000000000005
sI112
F0.0018649999999999999
sI113
F0.0032299999999999998
sI114
F0.0016766666666666666
sI115
F0.0013766666666666667
sI116
F0.00125
sI117
F0.00117
sI118
F0.0012183333333333334
sI119
F0.0011483333333333332
sI120
F0.0022816666666666667
sI121
F0.0015449999999999999
sI122
F0.0014166666666666668
sI123
F0.0014983333333333333
sI124
F0.00098166666666666671
sI125
F0.0013366666666666666
sI126
F0.00131
sI127
F0.0013033333333333334
sI128
F0.0010433333333333334
sI129
F0.0037599999999999999
sI130
F0.0017933333333333334
sI131
F0.0015283333333333334
sI132
F0.0014916666666666667
sI133
F0.0025483333333333334
sI134
F0.00147
sI135
F0.0012933333333333334
sI136
F0.0021900000000000001
sI137
F0.0020349999999999999
sI138
F0.0016783333333333333
sI139
F0.0016733333333333333
sI140
F0.001475
sI141
F0.0013600000000000001
sI142
F0.0012999999999999999
sI143
F0.0025133333333333331
sI144
F0.002405
sI145
F0.0015100000000000001
sI146
F0.0015033333333333333
sI147
F0.0015133333333333333
sI148
F0.0013166666666666667
sI149
F0.0013116666666666667
sI150
F0.0012849999999999999
sI151
F0.0012883333333333334
sI152
F0.0019716666666666667
sI153
F0.0017849999999999999
sI154
F0.0015116666666666666
sI155
F0.0013649999999999999
sI156
F0.0012983333333333334
sI157
F0.0011999999999999999
sI158
F0.0013283333333333333
sI159
F0.0012716666666666666
sI160
F0.0036116666666666667
sI161
F0.0017899999999999999
sI162
F0.0014233333333333333
sI163
F0.0027083333333333334
sI164
F0.0014483333333333334
sI165
F0.00097999999999999997
sI166
F0.001065
sI167
F0.0013033333333333334
sI168
F0.0020733333333333333
sI169
F0.0018533333333333334
sI170
F0.0016566666666666667
sI171
F0.001415
sI172
F0.0014
sI173
F0.0024499999999999999
sI174
F0.0014616666666666667
sI175
F0.0013550000000000001
sI176
F0.0021833333333333331
sI177
F0.0019016666666666667
sI178
F0.0015499999999999999
sI179
F0.00148
sI180
F0.0014549999999999999
sI181
F0.0013533333333333333
sI182
F0.0010366666666666666
sI183
F0.00141
sI184
F0.0023149999999999998
sI185
F0.0015983333333333333
sI186
F0.0013866666666666667
sI187
F0.0013766666666666667
sI188
F0.0014233333333333333
sI189
F0.00125
sI190
F0.0013166666666666667
sI191
F0.0012999999999999999
sI192
F0.00316
sI193
F0.0032083333333333334
sI194
F0.0017466666666666668
sI195
F0.00098666666666666672
sI196
F0.0013783333333333334
sI197
F0.0014366666666666666
sI198
F0.0012233333333333334
sI199
F0.0012049999999999999
sI200
F0.0022116666666666665
sI201
F0.0016466666666666667
sI202
F0.0013883333333333334
sI203
F0.0026733333333333331
sI204
F0.0015266666666666666
sI205
F0.00095833333333333328
sI206
F0.0013316666666666668
sI207
F0.0011683333333333333
sI208
F0.0022799999999999999
sI209
F0.0018283333333333333
sI210
F0.0016216666666666667
sI211
F0.0013883333333333334
sI212
F0.0015
sI213
F0.0026199999999999999
sI214
F0.0014983333333333333
sI215
F0.0013283333333333333
sI216
F0.0022699999999999999
sI217
F0.0018450000000000001
sI218
F0.0016783333333333333
sI219
F0.0015900000000000001
sI220
F0.00141
sI221
F0.0013383333333333333
sI222
F0.0013983333333333332
sI223
F0.0012199999999999999
sI224
F0.003395
sI225
F0.0018866666666666667
sI226
F0.0014966666666666668
sI227
F0.0013633333333333334
sI228
F0.0013766666666666667
sI229
F0.00124
sI230
F0.0012816666666666666
sI231
F0.001335
sI232
F0.0018966666666666667
sI233
F0.00098333333333333324
sI234
F0.0028649999999999999
sI235
F0.0016616666666666668
sI236
F0.0014483333333333334
sI237
F0.0012483333333333333
sI238
F0.0012083333333333334
sI239
F0.0011416666666666667
sI240
F0.0023666666666666667
sI241
F0.0018116666666666667
sI242
F0.001555
sI243
F0.0030049999999999999
sI244
F0.00099833333333333328
sI245
F0.0014566666666666667
sI246
F0.0012600000000000001
sI247
F0.00133
sI248
F0.0022699999999999999
sI249
F0.0018216666666666667
sI250
F0.001565
sI251
F0.001225
sI252
F0.0013699999999999999
sI253
F0.0013466666666666666
sI254
F0.0012916666666666667
sI255
F0.00095500000000000001
sI256
F0.0034883333333333333
sI257
F0.0019849999999999998
sI258
F0.0016816666666666666
sI259
F0.0014350000000000001
sI260
F0.00099166666666666674
sI261
F0.0013566666666666666
sI262
F0.0013166666666666667
sI263
F0.0024866666666666665
sI264
F0.0026083333333333332
sI265
F0.0016016666666666666
sI266
F0.0015383333333333334
sI267
F0.0013916666666666667
sI268
F0.001335
sI269
F0.0012433333333333333
sI270
F0.0012149999999999999
sI271
F0.0012849999999999999
sI272
F0.0018866666666666667
sI273
F0.0032000000000000002
sI274
F0.0016816666666666666
sI275
F0.0013983333333333332
sI276
F0.0013450000000000001
sI277
F0.0012516666666666668
sI278
F0.0012750000000000001
sI279
F0.0012750000000000001
sI280
F0.00232
sI281
F0.0015299999999999999
sI282
F0.0013600000000000001
sI283
F0.0013849999999999999
sI284
F0.001325
sI285
F0.0012416666666666667
sI286
F0.0012283333333333332
sI287
F0.0012966666666666667
sI288
F0.0036466666666666665
sI289
F0.0019916666666666668
sI290
F0.0015950000000000001
sI291
F0.0014933333333333333
sI292
F0.0009766666666666667
sI293
F0.0025633333333333333
sI294
F0.0014616666666666667
sI295
F0.0012983333333333334
sI296
F0.0021116666666666666
sI297
F0.0018649999999999999
sI298
F0.0016583333333333333
sI299
F0.0016366666666666667
sI300
F0.0013550000000000001
sI301
F0.0012750000000000001
sI302
F0.0012833333333333334
sI303
F0.0024466666666666669
sI304
F0.0026166666666666669
sI305
F0.00099500000000000001
sI306
F0.001815
sI307
F0.0014616666666666667
sI308
F0.0013266666666666667
sI309
F0.0013033333333333334
sI310
F0.0013033333333333334
sI311
F0.001305
sI312
F0.0017366666666666667
sI313
F0.0018716666666666667
sI314
F0.0010116666666666666
sI315
F0.0010466666666666667
sI316
F0.0013633333333333334
sI317
F0.0010116666666666666
sI318
F0.0013466666666666666
sI319
F0.0013616666666666666
sI320
F0.0035599999999999998
sI321
F0.00181
sI322
F0.0015116666666666666
sI323
F0.0026566666666666666
sI324
F0.0015866666666666666
sI325
F0.0013683333333333334
sI326
F0.0011383333333333334
sI327
F0.0012666666666666666
sI328
F0.0023133333333333335
sI329
F0.0018516666666666666
sI330
F0.0015633333333333332
sI331
F0.0016100000000000001
sI332
F0.00141
sI333
F0.0028700000000000002
sI334
F0.0014316666666666666
sI335
F0.0013600000000000001
sI336
F0.001005
sI337
F0.0010333333333333334
sI338
F0.0022633333333333333
sI339
F0.0018183333333333333
sI340
F0.0016249999999999999
sI341
F0.0013483333333333333
sI342
F0.0013266666666666667
sI343
F0.0014649999999999999
sI344
F0.0023033333333333334
sI345
F0.0017183333333333334
sI346
F0.0014166666666666668
sI347
F0.0013583333333333334
sI348
F0.0013266666666666667
sI349
F0.0013883333333333334
sI350
F0.0013366666666666666
sI351
F0.00096166666666666666
sI352
F0.0030500000000000002
ssg494
F0.52256666666666662
sstp501
a(g11
(tRp502
S'workload'
p503
g11
(tRp504
S'n_contents'
p505
I30000
sS'rank_per_group'
p506
I1
sS'name'
p507
S'DIFFRANK'
p508
sS'n_warmup'
p509
I60000
sS'rate'
p510
F300
sS'n_measured'
p511
I600000
sS'alpha'
p512
F1
sS'n_rank'
p513
I4
ssS'group'
p514
g11
(tRp515
g507
S'GROUP'
p516
ssS'cache_policy'
p517
g11
(tRp518
g507
S'LRU'
p519
ssS'content_placement'
p520
g11
(tRp521
g507
S'UNIFORM'
p522
ssS'strategy'
p523
g11
(tRp524
g507
S'NRR'
p525
ssS'rankgroup'
p526
g11
(tRp527
g507
S'4,GROUP'
p528
ssS'cache_placement'
p529
g11
(tRp530
S'network_cache'
p531
F0.029999999999999999
sg507
g522
ssS'desc'
p532
S'Alpha: 1.0, strategy: NRR,  network cache: 0.03, topology: Edgefog, num of datastore: 1, rank&group: 4,GROUP. '
p533
sS'topology'
p534
g11
(tRp535
S'n_node'
p536
I320
sS'n_datastore'
p537
I1
sg507
S'EDGEFOG'
p538
sS'n_member'
p539
I80
ssg11
(tRp540
S'LATENCY'
p541
g11
(tRp542
S'MEAN'
p543
F37.593466666666664
ssS'CACHE_HIT_RATIO'
p544
g11
(tRp545
S'PER_NODE_SERVER_HIT_RATIO'
p546
g11
(tRp547
I0
F0.30668000000000001
ssS'PER_NODE_CACHE_HIT_RATIO'
p548
g11
(tRp549
I5
F0.00095
sI6
F0.00099166666666666674
sI7
F0.021364999999999999
sI8
F0.0010266666666666666
sI9
F0.0037283333333333335
sI10
F0.0023066666666666665
sI11
F0.0010516666666666667
sI12
F0.0015100000000000001
sI13
F0.0010483333333333334
sI14
F0.0011000000000000001
sI15
F0.00099166666666666674
sI16
F0.0022599999999999999
sI17
F0.0019750000000000002
sI18
F0.0016283333333333334
sI19
F0.0014616666666666667
sI20
F0.0014516666666666666
sI21
F0.0012833333333333334
sI22
F0.0014033333333333333
sI23
F0.0012883333333333334
sI24
F0.0022333333333333333
sI25
F0.0018749999999999999
sI26
F0.0018649999999999999
sI27
F0.00096500000000000004
sI28
F0.0014499999999999999
sI29
F0.0014416666666666666
sI30
F0.0012183333333333334
sI31
F0.0012716666666666666
sI32
F0.013838333333333333
sI33
F0.005901666666666667
sI34
F0.0032450000000000001
sI35
F0.0024499999999999999
sI36
F0.0018566666666666666
sI37
F0.0016716666666666666
sI38
F0.0017083333333333334
sI39
F0.0015216666666666666
sI40
F0.0024933333333333335
sI41
F0.0019833333333333335
sI42
F0.0017983333333333334
sI43
F0.0015916666666666666
sI44
F0.0010250000000000001
sI45
F0.0014716666666666667
sI46
F0.0013416666666666666
sI47
F0.0012433333333333333
sI48
F0.0010483333333333334
sI49
F0.0019316666666666666
sI50
F0.0016883333333333334
sI51
F0.0017366666666666667
sI52
F0.0015100000000000001
sI53
F0.0013516666666666666
sI54
F0.0010416666666666667
sI55
F0.0012899999999999999
sI56
F0.00095666666666666665
sI57
F0.0010183333333333333
sI58
F0.0016816666666666666
sI59
F0.0015
sI60
F0.0014216666666666666
sI61
F0.0014450000000000001
sI62
F0.0012233333333333334
sI63
F0.001325
sI64
F0.0081650000000000004
sI65
F0.0042649999999999997
sI66
F0.0030816666666666666
sI67
F0.0025083333333333333
sI68
F0.0022716666666666666
sI69
F0.0010316666666666666
sI70
F0.0016083333333333334
sI71
F0.0015616666666666667
sI72
F0.0022183333333333334
sI73
F0.0020266666666666666
sI74
F0.0016166666666666666
sI75
F0.00174
sI76
F0.0015783333333333333
sI77
F0.0014599999999999999
sI78
F0.0013816666666666667
sI79
F0.0013666666666666666
sI80
F0.0023766666666666667
sI81
F0.0017949999999999999
sI82
F0.0016366666666666667
sI83
F0.0010250000000000001
sI84
F0.0017133333333333334
sI85
F0.0013966666666666667
sI86
F0.0014216666666666666
sI87
F0.0012966666666666667
sI88
F0.0024083333333333335
sI89
F0.00099500000000000001
sI90
F0.0010716666666666667
sI91
F0.0015299999999999999
sI92
F0.0014649999999999999
sI93
F0.0010499999999999999
sI94
F0.0013633333333333334
sI95
F0.0010116666666666666
sI96
F0.014021666666666667
sI97
F0.0042916666666666667
sI98
F0.0030333333333333332
sI99
F0.0023283333333333333
sI100
F0.0018033333333333334
sI101
F0.00097833333333333323
sI102
F0.0010200000000000001
sI103
F0.0014233333333333333
sI104
F0.0024433333333333334
sI105
F0.00098166666666666671
sI106
F0.0017766666666666666
sI107
F0.00097833333333333323
sI108
F0.0010516666666666667
sI109
F0.0014916666666666667
sI110
F0.0014916666666666667
sI111
F0.00101
sI112
F0.0022599999999999999
sI113
F0.00094666666666666662
sI114
F0.0017866666666666667
sI115
F0.0016666666666666668
sI116
F0.0015100000000000001
sI117
F0.0014683333333333334
sI118
F0.00141
sI119
F0.0013450000000000001
sI120
F0.00098666666666666672
sI121
F0.0018266666666666668
sI122
F0.0017616666666666666
sI123
F0.0010549999999999999
sI124
F0.0010733333333333333
sI125
F0.0010166666666666666
sI126
F0.0013216666666666667
sI127
F0.0012999999999999999
sI128
F0.027508333333333333
sI129
F0.0051666666666666666
sI130
F0.0010399999999999999
sI131
F0.0026133333333333334
sI132
F0.0020500000000000002
sI133
F0.0010399999999999999
sI134
F0.0017833333333333334
sI135
F0.0016116666666666666
sI136
F0.0024316666666666666
sI137
F0.001005
sI138
F0.00096333333333333329
sI139
F0.00173
sI140
F0.0016516666666666667
sI141
F0.0010716666666666667
sI142
F0.00099333333333333326
sI143
F0.0014966666666666668
sI144
F0.0022799999999999999
sI145
F0.0019316666666666666
sI146
F0.0017949999999999999
sI147
F0.0016216666666666667
sI148
F0.0017033333333333334
sI149
F0.0014716666666666667
sI150
F0.0013683333333333334
sI151
F0.0013666666666666666
sI152
F0.0020266666666666666
sI153
F0.0018266666666666668
sI154
F0.0017033333333333334
sI155
F0.00087000000000000001
sI156
F0.0015399999999999999
sI157
F0.00139
sI158
F0.0010033333333333333
sI159
F0.0014266666666666666
sI160
F0.0063533333333333332
sI161
F0.0032016666666666665
sI162
F0.0024833333333333335
sI163
F0.0019933333333333335
sI164
F0.0018033333333333334
sI165
F0.022193333333333332
sI166
F0.0031350000000000002
sI167
F0.0020200000000000001
sI168
F0.0029533333333333334
sI169
F0.0024816666666666667
sI170
F0.0010383333333333334
sI171
F0.0010166666666666666
sI172
F0.0017116666666666667
sI173
F0.0015
sI174
F0.0014633333333333334
sI175
F0.0014350000000000001
sI176
F0.0023900000000000002
sI177
F0.0019650000000000002
sI178
F0.0017666666666666666
sI179
F0.0010416666666666667
sI180
F0.0015416666666666667
sI181
F0.0013616666666666666
sI182
F0.0014633333333333334
sI183
F0.00134
sI184
F0.0010483333333333334
sI185
F0.0019433333333333334
sI186
F0.00094333333333333335
sI187
F0.0010383333333333334
sI188
F0.0014533333333333334
sI189
F0.001505
sI190
F0.0014383333333333333
sI191
F0.0013266666666666667
sI192
F0.00099500000000000001
sI193
F0.013509999999999999
sI194
F0.00594
sI195
F0.0043499999999999997
sI196
F0.0028149999999999998
sI197
F0.00093333333333333332
sI198
F0.0019350000000000001
sI199
F0.0010449999999999999
sI200
F0.00099333333333333326
sI201
F0.002225
sI202
F0.0019
sI203
F0.0010016666666666668
sI204
F0.00099666666666666675
sI205
F0.0014649999999999999
sI206
F0.0014516666666666666
sI207
F0.0014283333333333333
sI208
F0.00095333333333333338
sI209
F0.0020799999999999998
sI210
F0.00091166666666666664
sI211
F0.0016833333333333333
sI212
F0.0015499999999999999
sI213
F0.0014250000000000001
sI214
F0.00098666666666666672
sI215
F0.0014566666666666667
sI216
F0.0021633333333333335
sI217
F0.0010283333333333334
sI218
F0.0016316666666666667
sI219
F0.0018483333333333333
sI220
F0.0016016666666666666
sI221
F0.0014266666666666666
sI222
F0.00142
sI223
F0.0010133333333333333
sI224
F0.0010300000000000001
sI225
F0.0074183333333333332
sI226
F0.0010283333333333334
sI227
F0.0035916666666666666
sI228
F0.0025400000000000002
sI229
F0.0021199999999999999
sI230
F0.0010283333333333334
sI231
F0.00095
sI232
F0.0024516666666666667
sI233
F0.0020916666666666666
sI234
F0.0018433333333333333
sI235
F0.0019933333333333335
sI236
F0.00099333333333333326
sI237
F0.0015366666666666666
sI238
F0.00098999999999999999
sI239
F0.001305
sI240
F0.0027116666666666665
sI241
F0.0019499999999999999
sI242
F0.0010583333333333334
sI243
F0.0016833333333333333
sI244
F0.0016483333333333332
sI245
F0.00097833333333333323
sI246
F0.0010150000000000001
sI247
F0.0012933333333333334
sI248
F0.0022066666666666667
sI249
F0.0009233333333333333
sI250
F0.0018600000000000001
sI251
F0.00156
sI252
F0.0010216666666666666
sI253
F0.0013533333333333333
sI254
F0.0013466666666666666
sI255
F0.0013666666666666666
sI256
F0.032695000000000002
sI257
F0.0093983333333333332
sI258
F0.0010666666666666667
sI259
F0.0033966666666666668
sI260
F0.0022133333333333332
sI261
F0.00097333333333333332
sI262
F0.0017716666666666666
sI263
F0.0015200000000000001
sI264
F0.0027583333333333331
sI265
F0.0021749999999999999
sI266
F0.0019433333333333334
sI267
F0.0018133333333333332
sI268
F0.00108
sI269
F0.0015433333333333334
sI270
F0.0013799999999999999
sI271
F0.0013983333333333332
sI272
F0.00233
sI273
F0.0019683333333333332
sI274
F0.00095500000000000001
sI275
F0.00164
sI276
F0.0015
sI277
F0.001405
sI278
F0.00093833333333333334
sI279
F0.00142
sI280
F0.0021033333333333334
sI281
F0.0010433333333333334
sI282
F0.0010783333333333333
sI283
F0.0016483333333333332
sI284
F0.0015116666666666666
sI285
F0.0014566666666666667
sI286
F0.0014066666666666667
sI287
F0.00096833333333333331
sI288
F0.0010283333333333334
sI289
F0.0058133333333333335
sI290
F0.0034066666666666668
sI291
F0.0027433333333333333
sI292
F0.0020866666666666668
sI293
F0.0017899999999999999
sI294
F0.0010866666666666668
sI295
F0.00099666666666666675
sI296
F0.0025716666666666665
sI297
F0.00097333333333333332
sI298
F0.0019733333333333334
sI299
F0.0019016666666666667
sI300
F0.0016333333333333334
sI301
F0.00096500000000000004
sI302
F0.001065
sI303
F0.0015399999999999999
sI304
F0.0022983333333333332
sI305
F0.001885
sI306
F0.0010833333333333333
sI307
F0.0016316666666666667
sI308
F0.00096500000000000004
sI309
F0.0012683333333333333
sI310
F0.0015383333333333334
sI311
F0.0014716666666666667
sI312
F0.0020533333333333332
sI313
F0.00182
sI314
F0.001565
sI315
F0.001885
sI316
F0.0010499999999999999
sI317
F0.00097499999999999996
sI318
F0.0010516666666666667
sI319
F0.001335
sI320
F0.00097333333333333332
sI321
F0.0046116666666666667
sI322
F0.0030883333333333331
sI323
F0.0010466666666666667
sI324
F0.0020116666666666668
ssg543
F0.69332000000000005
sstp550
a(g11
(tRp551
S'workload'
p552
g11
(tRp553
S'n_contents'
p554
I30000
sS'rank_per_group'
p555
I4
sS'name'
p556
S'DIFFRANK'
p557
sS'n_warmup'
p558
I60000
sS'rate'
p559
F300
sS'n_measured'
p560
I600000
sS'alpha'
p561
F1
sS'n_rank'
p562
I4
ssS'group'
p563
g11
(tRp564
g556
S'NOTGROUP'
p565
ssS'cache_policy'
p566
g11
(tRp567
g556
S'LRU'
p568
ssS'content_placement'
p569
g11
(tRp570
g556
S'UNIFORM'
p571
ssS'strategy'
p572
g11
(tRp573
g556
S'NRR'
p574
ssS'rankgroup'
p575
g11
(tRp576
g556
S'4,NOTGROUP'
p577
ssS'cache_placement'
p578
g11
(tRp579
S'network_cache'
p580
F0.029999999999999999
sg556
g571
ssS'desc'
p581
S'Alpha: 1.0, strategy: NRR,  network cache: 0.03, topology: Edgefog, num of datastore: 1, rank&group: 4,NOTGROUP. '
p582
sS'topology'
p583
g11
(tRp584
S'n_node'
p585
I320
sS'n_datastore'
p586
I1
sg556
S'EDGEFOG'
p587
sS'n_member'
p588
I320
ssg11
(tRp589
S'LATENCY'
p590
g11
(tRp591
S'MEAN'
p592
F58.542754667107957
ssS'CACHE_HIT_RATIO'
p593
g11
(tRp594
S'PER_NODE_SERVER_HIT_RATIO'
p595
g11
(tRp596
I0
F0.67601333333333335
ssS'PER_NODE_CACHE_HIT_RATIO'
p597
g11
(tRp598
I2
F0.0010200000000000001
sI3
F0.00091500000000000001
sI4
F0.0010016666666666668
sI5
F0.0010383333333333334
sI6
F0.0010416666666666667
sI7
F0.00095666666666666665
sI8
F0.0010383333333333334
sI9
F0.00095166666666666663
sI10
F0.0010300000000000001
sI11
F0.00117
sI12
F0.0010116666666666666
sI13
F0.0010033333333333333
sI14
F0.00098499999999999998
sI15
F0.00096833333333333331
sI16
F0.0010499999999999999
sI17
F0.00106
sI18
F0.0010016666666666668
sI19
F0.0011183333333333334
sI20
F0.00098666666666666672
sI21
F0.00101
sI22
F0.0010300000000000001
sI23
F0.0010566666666666667
sI24
F0.00097333333333333332
sI25
F0.0009233333333333333
sI26
F0.0011016666666666666
sI27
F0.0010033333333333333
sI28
F0.0010549999999999999
sI29
F0.0010466666666666667
sI30
F0.0010233333333333333
sI31
F0.0010916666666666666
sI32
F0.00097333333333333332
sI33
F0.0010233333333333333
sI34
F0.0010066666666666666
sI35
F0.0010666666666666667
sI36
F0.0010166666666666666
sI37
F0.00096833333333333331
sI38
F0.00094499999999999998
sI39
F0.00096833333333333331
sI40
F0.00095333333333333338
sI41
F0.00098833333333333325
sI42
F0.0010250000000000001
sI43
F0.00099333333333333326
sI44
F0.001075
sI45
F0.0010216666666666666
sI46
F0.0010583333333333334
sI47
F0.00099333333333333326
sI48
F0.00095666666666666665
sI49
F0.0010333333333333334
sI50
F0.00093833333333333334
sI51
F0.0010616666666666667
sI52
F0.00097166666666666669
sI53
F0.00093166666666666669
sI54
F0.0010349999999999999
sI55
F0.00095500000000000001
sI56
F0.0010083333333333333
sI57
F0.0010316666666666666
sI58
F0.0010216666666666666
sI59
F0.00095500000000000001
sI60
F0.0010933333333333333
sI61
F0.0010399999999999999
sI62
F0.0010466666666666667
sI63
F0.0010416666666666667
sI64
F0.0010183333333333333
sI65
F0.001
sI66
F0.00099666666666666675
sI67
F0.0010066666666666666
sI68
F0.00099666666666666675
sI69
F0.0010416666666666667
sI70
F0.00095
sI71
F0.00108
sI72
F0.0010200000000000001
sI73
F0.00095833333333333328
sI74
F0.0010449999999999999
sI75
F0.0010266666666666666
sI76
F0.0010616666666666667
sI77
F0.00099333333333333326
sI78
F0.0010466666666666667
sI79
F0.0011050000000000001
sI80
F0.00099666666666666675
sI81
F0.00094333333333333335
sI82
F0.00098333333333333324
sI83
F0.00095333333333333338
sI84
F0.0010633333333333332
sI85
F0.0010366666666666666
sI86
F0.00097000000000000005
sI87
F0.0010316666666666666
sI88
F0.00098833333333333325
sI89
F0.00094333333333333335
sI90
F0.00096333333333333329
sI91
F0.001
sI92
F0.0010250000000000001
sI93
F0.001065
sI94
F0.00089166666666666669
sI95
F0.001
sI96
F0.0010333333333333334
sI97
F0.0010516666666666667
sI98
F0.00096000000000000002
sI99
F0.00101
sI100
F0.0011066666666666666
sI101
F0.0009766666666666667
sI102
F0.0010516666666666667
sI103
F0.00099666666666666675
sI104
F0.0010533333333333334
sI105
F0.001085
sI106
F0.001005
sI107
F0.0010549999999999999
sI108
F0.00095
sI109
F0.00096833333333333331
sI110
F0.0010766666666666667
sI111
F0.00099833333333333328
sI112
F0.00094166666666666672
sI113
F0.0010283333333333334
sI114
F0.0010066666666666666
sI115
F0.00098499999999999998
sI116
F0.00096500000000000004
sI117
F0.00088666666666666668
sI118
F0.0010116666666666666
sI119
F0.0010483333333333334
sI120
F0.0010466666666666667
sI121
F0.0010300000000000001
sI122
F0.00095333333333333338
sI123
F0.00095333333333333338
sI124
F0.0010349999999999999
sI125
F0.00096500000000000004
sI126
F0.001005
sI127
F0.0010816666666666668
sI128
F0.0010433333333333334
sI129
F0.0010483333333333334
sI130
F0.0010566666666666667
sI131
F0.001075
sI132
F0.001085
sI133
F0.00090833333333333337
sI134
F0.001005
sI135
F0.00096500000000000004
sI136
F0.0010116666666666666
sI137
F0.0010383333333333334
sI138
F0.00098333333333333324
sI139
F0.00096333333333333329
sI140
F0.0009766666666666667
sI141
F0.0010383333333333334
sI142
F0.00097999999999999997
sI143
F0.0010783333333333333
sI144
F0.0010516666666666667
sI145
F0.00094333333333333335
sI146
F0.0010883333333333333
sI147
F0.0010066666666666666
sI148
F0.00101
sI149
F0.0010233333333333333
sI150
F0.0010150000000000001
sI151
F0.0010133333333333333
sI152
F0.0010316666666666666
sI153
F0.0010383333333333334
sI154
F0.0010200000000000001
sI155
F0.00097000000000000005
sI156
F0.001
sI157
F0.00098833333333333325
sI158
F0.0010533333333333334
sI159
F0.0010150000000000001
sI160
F0.0010883333333333333
sI161
F0.0010016666666666668
sI162
F0.00098999999999999999
sI163
F0.00097166666666666669
sI164
F0.00098333333333333324
sI165
F0.00096000000000000002
sI166
F0.0010566666666666667
sI167
F0.0010533333333333334
sI168
F0.0010883333333333333
sI169
F0.0010250000000000001
sI170
F0.00098666666666666672
sI171
F0.0010216666666666666
sI172
F0.0010499999999999999
sI173
F0.0010483333333333334
sI174
F0.0010016666666666668
sI175
F0.0010449999999999999
sI176
F0.00098666666666666672
sI177
F0.00099333333333333326
sI178
F0.00101
sI179
F0.001
sI180
F0.0010533333333333334
sI181
F0.0010549999999999999
sI182
F0.00099500000000000001
sI183
F0.00096333333333333329
sI184
F0.0010349999999999999
sI185
F0.00097999999999999997
sI186
F0.0010383333333333334
sI187
F0.0010549999999999999
sI188
F0.001005
sI189
F0.001065
sI190
F0.00096333333333333329
sI191
F0.0010399999999999999
sI192
F0.00092833333333333331
sI193
F0.00097499999999999996
sI194
F0.00095166666666666663
sI195
F0.0010433333333333334
sI196
F0.00093000000000000005
sI197
F0.00107
sI198
F0.0010349999999999999
sI199
F0.00099166666666666674
sI200
F0.00096500000000000004
sI201
F0.0010166666666666666
sI202
F0.0010150000000000001
sI203
F0.0010316666666666666
sI204
F0.00095833333333333328
sI205
F0.00097333333333333332
sI206
F0.00099166666666666674
sI207
F0.0010733333333333333
sI208
F0.00095
sI209
F0.00098166666666666671
sI210
F0.0010116666666666666
sI211
F0.0010166666666666666
sI212
F0.0010499999999999999
sI213
F0.00109
sI214
F0.00096000000000000002
sI215
F0.0010016666666666668
sI216
F0.0010283333333333334
sI217
F0.0009233333333333333
sI218
F0.0010200000000000001
sI219
F0.00098333333333333324
sI220
F0.00099166666666666674
sI221
F0.0010616666666666667
sI222
F0.0010433333333333334
sI223
F0.0010133333333333333
sI224
F0.00098999999999999999
sI225
F0.00098833333333333325
sI226
F0.0010366666666666666
sI227
F0.00109
sI228
F0.00099166666666666674
sI229
F0.00099833333333333328
sI230
F0.00099166666666666674
sI231
F0.0010283333333333334
sI232
F0.001005
sI233
F0.0010083333333333333
sI234
F0.0010016666666666668
sI235
F0.00099166666666666674
sI236
F0.00098499999999999998
sI237
F0.00097833333333333323
sI238
F0.00099333333333333326
sI239
F0.0010133333333333333
sI240
F0.00093166666666666669
sI241
F0.00097833333333333323
sI242
F0.0010133333333333333
sI243
F0.001005
sI244
F0.0010533333333333334
sI245
F0.00095500000000000001
sI246
F0.0010250000000000001
sI247
F0.0010016666666666668
sI248
F0.00095833333333333328
sI249
F0.0010316666666666666
sI250
F0.0010716666666666667
sI251
F0.00096666666666666667
sI252
F0.0010183333333333333
sI253
F0.0010866666666666668
sI254
F0.0010916666666666666
sI255
F0.00099666666666666675
sI256
F0.0010766666666666667
sI257
F0.0010150000000000001
sI258
F0.0010116666666666666
sI259
F0.0010883333333333333
sI260
F0.00096000000000000002
sI261
F0.0010183333333333333
sI262
F0.00099333333333333326
sI263
F0.0010250000000000001
sI264
F0.0010516666666666667
sI265
F0.0010399999999999999
sI266
F0.0010200000000000001
sI267
F0.0010449999999999999
sI268
F0.00094166666666666672
sI269
F0.0010449999999999999
sI270
F0.0011083333333333333
sI271
F0.00098999999999999999
sI272
F0.0010016666666666668
sI273
F0.0010150000000000001
sI274
F0.00099666666666666675
sI275
F0.0011199999999999999
sI276
F0.00098333333333333324
sI277
F0.0010783333333333333
sI278
F0.0010566666666666667
sI279
F0.00093833333333333334
sI280
F0.00099666666666666675
sI281
F0.001065
sI282
F0.0010200000000000001
sI283
F0.0010133333333333333
sI284
F0.00099833333333333328
sI285
F0.0010433333333333334
sI286
F0.0010333333333333334
sI287
F0.0010150000000000001
sI288
F0.0010116666666666666
sI289
F0.0010016666666666668
sI290
F0.0010483333333333334
sI291
F0.00093499999999999996
sI292
F0.0010683333333333332
sI293
F0.00097166666666666669
sI294
F0.0010183333333333333
sI295
F0.0010016666666666668
sI296
F0.00095666666666666665
sI297
F0.0010233333333333333
sI298
F0.00097999999999999997
sI299
F0.0010333333333333334
sI300
F0.00096166666666666666
sI301
F0.00098666666666666672
sI302
F0.0010283333333333334
sI303
F0.00097499999999999996
sI304
F0.0010166666666666666
sI305
F0.00099500000000000001
sI306
F0.00097333333333333332
sI307
F0.0010666666666666667
sI308
F0.0010166666666666666
sI309
F0.00106
sI310
F0.0011000000000000001
sI311
F0.00096666666666666667
sI312
F0.00101
sI313
F0.0010066666666666666
sI314
F0.00099500000000000001
sI315
F0.001085
sI316
F0.00098999999999999999
sI317
F0.00097499999999999996
sI318
F0.00092666666666666668
sI319
F0.0010200000000000001
sI320
F0.001
sI321
F0.0011033333333333333
ssg592
F0.32398666666666665
sstp599
a(g11
(tRp600
S'workload'
p601
g11
(tRp602
S'n_contents'
p603
I30000
sS'rank_per_group'
p604
I1
sS'name'
p605
S'DIFFRANK'
p606
sS'n_warmup'
p607
I60000
sS'rate'
p608
F300
sS'n_measured'
p609
I600000
sS'alpha'
p610
F1
sS'n_rank'
p611
I32
ssS'group'
p612
g11
(tRp613
g605
S'GROUP'
p614
ssS'cache_policy'
p615
g11
(tRp616
g605
S'LRU'
p617
ssS'content_placement'
p618
g11
(tRp619
g605
S'UNIFORM'
p620
ssS'strategy'
p621
g11
(tRp622
g605
S'NRR'
p623
ssS'rankgroup'
p624
g11
(tRp625
g605
S'32,GROUP'
p626
ssS'cache_placement'
p627
g11
(tRp628
S'network_cache'
p629
F0.040000000000000001
sg605
g620
ssS'desc'
p630
S'Alpha: 1.0, strategy: NRR,  network cache: 0.04, topology: Edgefog, num of datastore: 1, rank&group: 32,GROUP. '
p631
sS'topology'
p632
g11
(tRp633
S'n_node'
p634
I320
sS'n_datastore'
p635
I1
sg605
S'EDGEFOG'
p636
sS'n_member'
p637
I10
ssg11
(tRp638
S'LATENCY'
p639
g11
(tRp640
S'MEAN'
p641
F37.841760000000001
ssS'CACHE_HIT_RATIO'
p642
g11
(tRp643
S'PER_NODE_SERVER_HIT_RATIO'
p644
g11
(tRp645
I0
F0.44726500000000002
ssS'PER_NODE_CACHE_HIT_RATIO'
p646
g11
(tRp647
I33
F0.0031966666666666667
sI34
F0.0018683333333333334
sI35
F0.0016833333333333333
sI36
F0.001395
sI37
F0.00131
sI38
F0.0012916666666666667
sI39
F0.0013450000000000001
sI40
F0.0021800000000000001
sI41
F0.0017683333333333333
sI42
F0.0014966666666666668
sI43
F0.0027866666666666665
sI44
F0.0016783333333333333
sI45
F0.0014549999999999999
sI46
F0.0013566666666666666
sI47
F0.0013033333333333334
sI48
F0.0022566666666666668
sI49
F0.0019216666666666666
sI50
F0.0016483333333333332
sI51
F0.0016216666666666667
sI52
F0.0014933333333333333
sI53
F0.0028533333333333332
sI54
F0.0016050000000000001
sI55
F0.0015349999999999999
sI56
F0.0022066666666666667
sI57
F0.0011333333333333334
sI58
F0.0011133333333333334
sI59
F0.0018983333333333333
sI60
F0.0017883333333333334
sI61
F0.0014716666666666667
sI62
F0.0013966666666666667
sI63
F0.0012783333333333334
sI64
F0.0011000000000000001
sI65
F0.0033183333333333333
sI66
F0.0019766666666666665
sI67
F0.00164
sI68
F0.0015250000000000001
sI69
F0.0013716666666666667
sI70
F0.0013849999999999999
sI71
F0.0014499999999999999
sI72
F0.0023016666666666667
sI73
F0.0032533333333333333
sI74
F0.00173
sI75
F0.0014466666666666666
sI76
F0.0010383333333333334
sI77
F0.0014766666666666667
sI78
F0.0013466666666666666
sI79
F0.0012883333333333334
sI80
F0.0024133333333333333
sI81
F0.0018600000000000001
sI82
F0.0014683333333333334
sI83
F0.0029199999999999999
sI84
F0.0016233333333333334
sI85
F0.0014333333333333333
sI86
F0.0013816666666666667
sI87
F0.0012733333333333333
sI88
F0.0023366666666666666
sI89
F0.0017333333333333333
sI90
F0.0017416666666666668
sI91
F0.00167
sI92
F0.0015333333333333334
sI93
F0.00149
sI94
F0.0013016666666666667
sI95
F0.0013633333333333334
sI96
F0.0035916666666666666
sI97
F0.0021649999999999998
sI98
F0.0017916666666666667
sI99
F0.0017149999999999999
sI100
F0.0014716666666666667
sI101
F0.0013566666666666666
sI102
F0.0013866666666666667
sI103
F0.0024599999999999999
sI104
F0.0024316666666666666
sI105
F0.0017700000000000001
sI106
F0.001575
sI107
F0.0014466666666666666
sI108
F0.0014733333333333334
sI109
F0.0014333333333333333
sI110
F0.001405
sI111
F0.0014233333333333333
sI112
F0.0019583333333333332
sI113
F0.0034466666666666665
sI114
F0.0018033333333333334
sI115
F0.0015533333333333334
sI116
F0.0013616666666666666
sI117
F0.0014016666666666667
sI118
F0.0010283333333333334
sI119
F0.0010916666666666666
sI120
F0.0022399999999999998
sI121
F0.00173
sI122
F0.0011416666666666667
sI123
F0.0015383333333333334
sI124
F0.0014183333333333333
sI125
F0.001395
sI126
F0.0013216666666666667
sI127
F0.0014033333333333333
sI128
F0.0037083333333333334
sI129
F0.0021766666666666666
sI130
F0.0016916666666666666
sI131
F0.00156
sI132
F0.0011366666666666667
sI133
F0.0026783333333333333
sI134
F0.0011066666666666666
sI135
F0.0016083333333333334
sI136
F0.0023716666666666665
sI137
F0.0019383333333333334
sI138
F0.0018166666666666667
sI139
F0.0016033333333333333
sI140
F0.0014499999999999999
sI141
F0.0013783333333333334
sI142
F0.0014283333333333333
sI143
F0.0026266666666666665
sI144
F0.0025533333333333332
sI145
F0.0018333333333333333
sI146
F0.0016033333333333333
sI147
F0.0016466666666666667
sI148
F0.0013616666666666666
sI149
F0.0012883333333333334
sI150
F0.00131
sI151
F0.0014250000000000001
sI152
F0.0018266666666666668
sI153
F0.0018633333333333334
sI154
F0.0016266666666666667
sI155
F0.0014316666666666666
sI156
F0.0014133333333333333
sI157
F0.0013883333333333334
sI158
F0.00117
sI159
F0.0014083333333333333
sI160
F0.0034616666666666667
sI161
F0.0019433333333333334
sI162
F0.0014933333333333333
sI163
F0.0028116666666666667
sI164
F0.0016033333333333333
sI165
F0.0014083333333333333
sI166
F0.0013966666666666667
sI167
F0.0013266666666666667
sI168
F0.0022816666666666667
sI169
F0.0019216666666666666
sI170
F0.0016466666666666667
sI171
F0.0015250000000000001
sI172
F0.0015033333333333333
sI173
F0.0029849999999999998
sI174
F0.0015866666666666666
sI175
F0.0013633333333333334
sI176
F0.0023783333333333334
sI177
F0.0018483333333333333
sI178
F0.0017149999999999999
sI179
F0.0015349999999999999
sI180
F0.0010766666666666667
sI181
F0.0015116666666666666
sI182
F0.0013866666666666667
sI183
F0.0015583333333333332
sI184
F0.0023316666666666668
sI185
F0.0016633333333333333
sI186
F0.001165
sI187
F0.0016216666666666667
sI188
F0.0015783333333333333
sI189
F0.001505
sI190
F0.0013666666666666666
sI191
F0.0014283333333333333
sI192
F0.0031716666666666668
sI193
F0.0031816666666666668
sI194
F0.00175
sI195
F0.0011316666666666667
sI196
F0.0016183333333333334
sI197
F0.0013866666666666667
sI198
F0.0013233333333333333
sI199
F0.0012866666666666666
sI200
F0.0023233333333333335
sI201
F0.0016383333333333334
sI202
F0.0014183333333333333
sI203
F0.0028816666666666665
sI204
F0.0010150000000000001
sI205
F0.0017583333333333333
sI206
F0.00107
sI207
F0.0014
sI208
F0.0023433333333333331
sI209
F0.0018316666666666668
sI210
F0.0018133333333333332
sI211
F0.0015566666666666667
sI212
F0.0011816666666666666
sI213
F0.001065
sI214
F0.0026316666666666667
sI215
F0.0015900000000000001
sI216
F0.0023649999999999999
sI217
F0.0018883333333333332
sI218
F0.0016716666666666666
sI219
F0.0015716666666666667
sI220
F0.0015766666666666668
sI221
F0.0014683333333333334
sI222
F0.0014933333333333333
sI223
F0.0014066666666666667
sI224
F0.0035266666666666667
sI225
F0.0018433333333333333
sI226
F0.0016800000000000001
sI227
F0.0015
sI228
F0.0015083333333333333
sI229
F0.0014033333333333333
sI230
F0.001405
sI231
F0.0012800000000000001
sI232
F0.0019449999999999999
sI233
F0.0030966666666666668
sI234
F0.0019816666666666667
sI235
F0.0016733333333333333
sI236
F0.0014300000000000001
sI237
F0.0013849999999999999
sI238
F0.0014483333333333334
sI239
F0.0013183333333333332
sI240
F0.0022066666666666667
sI241
F0.0010950000000000001
sI242
F0.0016333333333333334
sI243
F0.0028349999999999998
sI244
F0.0016333333333333334
sI245
F0.0015216666666666666
sI246
F0.0014316666666666666
sI247
F0.0011566666666666667
sI248
F0.0022699999999999999
sI249
F0.0019133333333333333
sI250
F0.0017099999999999999
sI251
F0.0015816666666666668
sI252
F0.0010466666666666667
sI253
F0.0015183333333333333
sI254
F0.00132
sI255
F0.0012516666666666668
sI256
F0.0037000000000000002
sI257
F0.0020300000000000001
sI258
F0.0017483333333333333
sI259
F0.0015833333333333333
sI260
F0.001565
sI261
F0.001395
sI262
F0.0013316666666666668
sI263
F0.0025133333333333331
sI264
F0.0023966666666666667
sI265
F0.0018566666666666666
sI266
F0.0016050000000000001
sI267
F0.0010783333333333333
sI268
F0.0015950000000000001
sI269
F0.0015100000000000001
sI270
F0.0015100000000000001
sI271
F0.0014216666666666666
sI272
F0.0018066666666666667
sI273
F0.0035416666666666665
sI274
F0.0018600000000000001
sI275
F0.00149
sI276
F0.001485
sI277
F0.0013216666666666667
sI278
F0.0014183333333333333
sI279
F0.0013483333333333333
sI280
F0.001145
sI281
F0.0019916666666666668
sI282
F0.0016000000000000001
sI283
F0.0017066666666666667
sI284
F0.0015933333333333333
sI285
F0.0014716666666666667
sI286
F0.0013383333333333333
sI287
F0.0013166666666666667
sI288
F0.0011333333333333334
sI289
F0.0036533333333333335
sI290
F0.0010883333333333333
sI291
F0.0020400000000000001
sI292
F0.0015399999999999999
sI293
F0.0028300000000000001
sI294
F0.0014566666666666667
sI295
F0.0014183333333333333
sI296
F0.0021800000000000001
sI297
F0.00116
sI298
F0.0020116666666666668
sI299
F0.0018033333333333334
sI300
F0.0016516666666666667
sI301
F0.001485
sI302
F0.0010683333333333332
sI303
F0.0024816666666666667
sI304
F0.0025850000000000001
sI305
F0.0017516666666666666
sI306
F0.0015900000000000001
sI307
F0.0015266666666666666
sI308
F0.0013033333333333334
sI309
F0.0013733333333333334
sI310
F0.0014166666666666668
sI311
F0.0013550000000000001
sI312
F0.0018416666666666666
sI313
F0.0023616666666666669
sI314
F0.0019183333333333333
sI315
F0.0015233333333333334
sI316
F0.0015166666666666666
sI317
F0.0013583333333333334
sI318
F0.0014833333333333332
sI319
F0.0013833333333333334
sI320
F0.0012149999999999999
sI321
F0.0010366666666666666
sI322
F0.0030249999999999999
sI323
F0.0029466666666666669
sI324
F0.0015733333333333333
sI325
F0.0013983333333333332
sI326
F0.0014
sI327
F0.0014416666666666666
sI328
F0.0021116666666666666
sI329
F0.0018866666666666667
sI330
F0.0017683333333333333
sI331
F0.0010733333333333333
sI332
F0.0015383333333333334
sI333
F0.0025333333333333332
sI334
F0.0010466666666666667
sI335
F0.0014933333333333333
sI336
F0.0024099999999999998
sI337
F0.0019483333333333334
sI338
F0.0017783333333333334
sI339
F0.0016366666666666667
sI340
F0.0014233333333333333
sI341
F0.0014116666666666668
sI342
F0.0013633333333333334
sI343
F0.0015316666666666666
sI344
F0.0023633333333333332
sI345
F0.00167
sI346
F0.0017650000000000001
sI347
F0.0015150000000000001
sI348
F0.0014233333333333333
sI349
F0.0014166666666666668
sI350
F0.00134
sI351
F0.0013716666666666667
sI352
F0.0033366666666666666
ssg641
F0.55273499999999998
sstp648
a(g11
(tRp649
S'workload'
p650
g11
(tRp651
S'n_contents'
p652
I30000
sS'rank_per_group'
p653
I32
sS'name'
p654
S'DIFFRANK'
p655
sS'n_warmup'
p656
I60000
sS'rate'
p657
F300
sS'n_measured'
p658
I600000
sS'alpha'
p659
F1
sS'n_rank'
p660
I32
ssS'group'
p661
g11
(tRp662
g654
S'NOTGROUP'
p663
ssS'cache_policy'
p664
g11
(tRp665
g654
S'LRU'
p666
ssS'content_placement'
p667
g11
(tRp668
g654
S'UNIFORM'
p669
ssS'strategy'
p670
g11
(tRp671
g654
S'NRR'
p672
ssS'rankgroup'
p673
g11
(tRp674
g654
S'32,NOTGROUP'
p675
ssS'cache_placement'
p676
g11
(tRp677
S'network_cache'
p678
F0.040000000000000001
sg654
g669
ssS'desc'
p679
S'Alpha: 1.0, strategy: NRR,  network cache: 0.04, topology: Edgefog, num of datastore: 1, rank&group: 32,NOTGROUP. '
p680
sS'topology'
p681
g11
(tRp682
S'n_node'
p683
I320
sS'n_datastore'
p684
I1
sg654
S'EDGEFOG'
p685
sS'n_member'
p686
I320
ssg11
(tRp687
S'LATENCY'
p688
g11
(tRp689
S'MEAN'
p690
F55.800421333727442
ssS'CACHE_HIT_RATIO'
p691
g11
(tRp692
S'PER_NODE_SERVER_HIT_RATIO'
p693
g11
(tRp694
I0
F0.64434666666666662
ssS'PER_NODE_CACHE_HIT_RATIO'
p695
g11
(tRp696
I2
F0.0010633333333333332
sI3
F0.0011150000000000001
sI4
F0.0011316666666666667
sI5
F0.0010333333333333334
sI6
F0.0011050000000000001
sI7
F0.0010950000000000001
sI8
F0.00097333333333333332
sI9
F0.0011466666666666667
sI10
F0.0011050000000000001
sI11
F0.0011383333333333334
sI12
F0.0011716666666666666
sI13
F0.0010733333333333333
sI14
F0.0010516666666666667
sI15
F0.001075
sI16
F0.001175
sI17
F0.0011166666666666666
sI18
F0.0011566666666666667
sI19
F0.0011083333333333333
sI20
F0.0011683333333333333
sI21
F0.0011633333333333333
sI22
F0.0010683333333333332
sI23
F0.0011083333333333333
sI24
F0.0010533333333333334
sI25
F0.0011316666666666667
sI26
F0.0011299999999999999
sI27
F0.0010366666666666666
sI28
F0.0012199999999999999
sI29
F0.0010783333333333333
sI30
F0.0010716666666666667
sI31
F0.0011033333333333333
sI32
F0.0010266666666666666
sI33
F0.0011299999999999999
sI34
F0.0011766666666666666
sI35
F0.001235
sI36
F0.0010283333333333334
sI37
F0.0010833333333333333
sI38
F0.0011466666666666667
sI39
F0.00107
sI40
F0.0011233333333333334
sI41
F0.0011116666666666666
sI42
F0.0011233333333333334
sI43
F0.001085
sI44
F0.0010466666666666667
sI45
F0.0011516666666666667
sI46
F0.0012333333333333332
sI47
F0.0010983333333333333
sI48
F0.0012149999999999999
sI49
F0.0010883333333333333
sI50
F0.0010283333333333334
sI51
F0.0011183333333333334
sI52
F0.0011166666666666666
sI53
F0.0012016666666666666
sI54
F0.0011516666666666667
sI55
F0.0010933333333333333
sI56
F0.0011249999999999999
sI57
F0.0010933333333333333
sI58
F0.0011216666666666666
sI59
F0.001
sI60
F0.0011233333333333334
sI61
F0.0011249999999999999
sI62
F0.0010549999999999999
sI63
F0.0011583333333333333
sI64
F0.0010983333333333333
sI65
F0.0011816666666666666
sI66
F0.0010633333333333332
sI67
F0.0011100000000000001
sI68
F0.0011249999999999999
sI69
F0.0011299999999999999
sI70
F0.00107
sI71
F0.0011716666666666666
sI72
F0.0011299999999999999
sI73
F0.0011150000000000001
sI74
F0.001085
sI75
F0.0011616666666666668
sI76
F0.0011016666666666666
sI77
F0.001075
sI78
F0.0010333333333333334
sI79
F0.0011166666666666666
sI80
F0.0010716666666666667
sI81
F0.0010816666666666668
sI82
F0.0011066666666666666
sI83
F0.0010183333333333333
sI84
F0.0011416666666666667
sI85
F0.0010783333333333333
sI86
F0.0010916666666666666
sI87
F0.0010383333333333334
sI88
F0.0011616666666666668
sI89
F0.0011116666666666666
sI90
F0.0011150000000000001
sI91
F0.0011766666666666666
sI92
F0.0011283333333333334
sI93
F0.0010833333333333333
sI94
F0.0011416666666666667
sI95
F0.0011150000000000001
sI96
F0.0010666666666666667
sI97
F0.0010533333333333334
sI98
F0.00109
sI99
F0.0010466666666666667
sI100
F0.0012083333333333334
sI101
F0.0011299999999999999
sI102
F0.0011833333333333333
sI103
F0.0011483333333333332
sI104
F0.0011683333333333333
sI105
F0.0012466666666666668
sI106
F0.0010533333333333334
sI107
F0.0010449999999999999
sI108
F0.0011316666666666667
sI109
F0.00109
sI110
F0.00114
sI111
F0.0010483333333333334
sI112
F0.00115
sI113
F0.0011950000000000001
sI114
F0.0010950000000000001
sI115
F0.0011133333333333334
sI116
F0.0011150000000000001
sI117
F0.00109
sI118
F0.0011016666666666666
sI119
F0.0010933333333333333
sI120
F0.0011900000000000001
sI121
F0.0011050000000000001
sI122
F0.0010933333333333333
sI123
F0.0011066666666666666
sI124
F0.0010983333333333333
sI125
F0.001145
sI126
F0.0011516666666666667
sI127
F0.0010633333333333332
sI128
F0.0011283333333333334
sI129
F0.0010933333333333333
sI130
F0.0011133333333333334
sI131
F0.0011483333333333332
sI132
F0.0011366666666666667
sI133
F0.00107
sI134
F0.0010716666666666667
sI135
F0.0011166666666666666
sI136
F0.001175
sI137
F0.0011533333333333333
sI138
F0.0010316666666666666
sI139
F0.001075
sI140
F0.0010533333333333334
sI141
F0.0010916666666666666
sI142
F0.0011199999999999999
sI143
F0.0011666666666666668
sI144
F0.0011733333333333333
sI145
F0.0011183333333333334
sI146
F0.001085
sI147
F0.0011733333333333333
sI148
F0.0010833333333333333
sI149
F0.0011733333333333333
sI150
F0.0011249999999999999
sI151
F0.0011833333333333333
sI152
F0.0011533333333333333
sI153
F0.0011616666666666668
sI154
F0.0010883333333333333
sI155
F0.001075
sI156
F0.0011133333333333334
sI157
F0.0011533333333333333
sI158
F0.00116
sI159
F0.0010883333333333333
sI160
F0.0011100000000000001
sI161
F0.0010683333333333332
sI162
F0.0011100000000000001
sI163
F0.0011150000000000001
sI164
F0.0011133333333333334
sI165
F0.001065
sI166
F0.0011583333333333333
sI167
F0.0010566666666666667
sI168
F0.0011083333333333333
sI169
F0.0011283333333333334
sI170
F0.0010866666666666668
sI171
F0.0010483333333333334
sI172
F0.0010966666666666666
sI173
F0.0011166666666666666
sI174
F0.001145
sI175
F0.0011299999999999999
sI176
F0.0010416666666666667
sI177
F0.0011183333333333334
sI178
F0.0012283333333333332
sI179
F0.00115
sI180
F0.0010466666666666667
sI181
F0.00107
sI182
F0.0011583333333333333
sI183
F0.0010983333333333333
sI184
F0.0011333333333333334
sI185
F0.0010766666666666667
sI186
F0.001085
sI187
F0.0010950000000000001
sI188
F0.0011083333333333333
sI189
F0.0010816666666666668
sI190
F0.00108
sI191
F0.0010683333333333332
sI192
F0.00116
sI193
F0.0010783333333333333
sI194
F0.00109
sI195
F0.0010716666666666667
sI196
F0.0010866666666666668
sI197
F0.00107
sI198
F0.0011416666666666667
sI199
F0.0011033333333333333
sI200
F0.0011150000000000001
sI201
F0.001145
sI202
F0.0010583333333333334
sI203
F0.0011716666666666666
sI204
F0.0011083333333333333
sI205
F0.0010816666666666668
sI206
F0.0011150000000000001
sI207
F0.0010233333333333333
sI208
F0.0010783333333333333
sI209
F0.0010416666666666667
sI210
F0.0010816666666666668
sI211
F0.0011416666666666667
sI212
F0.0012049999999999999
sI213
F0.0011199999999999999
sI214
F0.0011249999999999999
sI215
F0.0011533333333333333
sI216
F0.0011183333333333334
sI217
F0.0011050000000000001
sI218
F0.0011166666666666666
sI219
F0.0010399999999999999
sI220
F0.0011116666666666666
sI221
F0.0011283333333333334
sI222
F0.0010116666666666666
sI223
F0.0011283333333333334
sI224
F0.0011333333333333334
sI225
F0.0011016666666666666
sI226
F0.0011116666666666666
sI227
F0.0011666666666666668
sI228
F0.0011266666666666667
sI229
F0.00115
sI230
F0.0011583333333333333
sI231
F0.0011683333333333333
sI232
F0.0011666666666666668
sI233
F0.0011349999999999999
sI234
F0.0011199999999999999
sI235
F0.00114
sI236
F0.0010833333333333333
sI237
F0.0010916666666666666
sI238
F0.0010883333333333333
sI239
F0.0010666666666666667
sI240
F0.0011733333333333333
sI241
F0.0011466666666666667
sI242
F0.0011150000000000001
sI243
F0.001145
sI244
F0.0010816666666666668
sI245
F0.00114
sI246
F0.0011483333333333332
sI247
F0.0011883333333333333
sI248
F0.0011816666666666666
sI249
F0.0011066666666666666
sI250
F0.0010300000000000001
sI251
F0.0011716666666666666
sI252
F0.0010383333333333334
sI253
F0.0011249999999999999
sI254
F0.0011000000000000001
sI255
F0.00117
sI256
F0.0011033333333333333
sI257
F0.0010716666666666667
sI258
F0.0010516666666666667
sI259
F0.0011283333333333334
sI260
F0.0011483333333333332
sI261
F0.0011433333333333334
sI262
F0.0011566666666666667
sI263
F0.0011299999999999999
sI264
F0.0011883333333333333
sI265
F0.0011916666666666666
sI266
F0.0010966666666666666
sI267
F0.0011433333333333334
sI268
F0.0010499999999999999
sI269
F0.0011416666666666667
sI270
F0.0011633333333333333
sI271
F0.0011033333333333333
sI272
F0.00106
sI273
F0.0011100000000000001
sI274
F0.0011516666666666667
sI275
F0.0010783333333333333
sI276
F0.0011050000000000001
sI277
F0.0011333333333333334
sI278
F0.0011016666666666666
sI279
F0.00106
sI280
F0.0011616666666666668
sI281
F0.0010216666666666666
sI282
F0.0010449999999999999
sI283
F0.0011299999999999999
sI284
F0.00114
sI285
F0.0011233333333333334
sI286
F0.0010716666666666667
sI287
F0.0011466666666666667
sI288
F0.0010266666666666666
sI289
F0.0010300000000000001
sI290
F0.0010883333333333333
sI291
F0.00109
sI292
F0.0010833333333333333
sI293
F0.0011233333333333334
sI294
F0.0011199999999999999
sI295
F0.0010566666666666667
sI296
F0.0010566666666666667
sI297
F0.0010716666666666667
sI298
F0.0011333333333333334
sI299
F0.0011516666666666667
sI300
F0.00109
sI301
F0.0011316666666666667
sI302
F0.00107
sI303
F0.0011249999999999999
sI304
F0.0011783333333333333
sI305
F0.0011283333333333334
sI306
F0.0010716666666666667
sI307
F0.0011166666666666666
sI308
F0.0010916666666666666
sI309
F0.0010449999999999999
sI310
F0.0010816666666666668
sI311
F0.00107
sI312
F0.0011316666666666667
sI313
F0.0011266666666666667
sI314
F0.0010816666666666668
sI315
F0.00109
sI316
F0.0011483333333333332
sI317
F0.0011533333333333333
sI318
F0.0010233333333333333
sI319
F0.001085
sI320
F0.0011833333333333333
sI321
F0.00116
ssg690
F0.35565333333333332
sstp697
a(g11
(tRp698
S'workload'
p699
g11
(tRp700
S'n_contents'
p701
I30000
sS'rank_per_group'
p702
I1
sS'name'
p703
S'DIFFRANK'
p704
sS'n_warmup'
p705
I60000
sS'rate'
p706
F300
sS'n_measured'
p707
I600000
sS'alpha'
p708
F1
sS'n_rank'
p709
I4
ssS'group'
p710
g11
(tRp711
g703
S'GROUP'
p712
ssS'cache_policy'
p713
g11
(tRp714
g703
S'LRU'
p715
ssS'content_placement'
p716
g11
(tRp717
g703
S'UNIFORM'
p718
ssS'strategy'
p719
g11
(tRp720
g703
S'NRR'
p721
ssS'rankgroup'
p722
g11
(tRp723
g703
S'4,GROUP'
p724
ssS'cache_placement'
p725
g11
(tRp726
S'network_cache'
p727
F0.040000000000000001
sg703
g718
ssS'desc'
p728
S'Alpha: 1.0, strategy: NRR,  network cache: 0.04, topology: Edgefog, num of datastore: 1, rank&group: 4,GROUP. '
p729
sS'topology'
p730
g11
(tRp731
S'n_node'
p732
I320
sS'n_datastore'
p733
I1
sg703
S'EDGEFOG'
p734
sS'n_member'
p735
I80
ssg11
(tRp736
S'LATENCY'
p737
g11
(tRp738
S'MEAN'
p739
F33.856533333333331
ssS'CACHE_HIT_RATIO'
p740
g11
(tRp741
S'PER_NODE_SERVER_HIT_RATIO'
p742
g11
(tRp743
I0
F0.27522000000000002
ssS'PER_NODE_CACHE_HIT_RATIO'
p744
g11
(tRp745
I5
F0.001075
sI6
F0.0012066666666666667
sI7
F0.020003333333333335
sI8
F0.0049383333333333336
sI9
F0.0029650000000000002
sI10
F0.0024550000000000002
sI11
F0.002
sI12
F0.00157
sI13
F0.001655
sI14
F0.0010883333333333333
sI15
F0.00147
sI16
F0.002385
sI17
F0.0022116666666666665
sI18
F0.0020433333333333332
sI19
F0.0018666666666666666
sI20
F0.0014266666666666666
sI21
F0.0015816666666666668
sI22
F0.0014499999999999999
sI23
F0.0013649999999999999
sI24
F0.0010533333333333334
sI25
F0.0021233333333333334
sI26
F0.0011249999999999999
sI27
F0.00172
sI28
F0.0015833333333333333
sI29
F0.001
sI30
F0.00142
sI31
F0.0014066666666666667
sI32
F0.0011616666666666668
sI33
F0.0094983333333333326
sI34
F0.005705
sI35
F0.0010499999999999999
sI36
F0.00106
sI37
F0.0023966666666666667
sI38
F0.0021266666666666665
sI39
F0.0019966666666666666
sI40
F0.0010683333333333332
sI41
F0.0022433333333333333
sI42
F0.0020133333333333331
sI43
F0.0018116666666666667
sI44
F0.0016166666666666666
sI45
F0.0016083333333333334
sI46
F0.0011316666666666667
sI47
F0.0010783333333333333
sI48
F0.0026016666666666666
sI49
F0.0021316666666666667
sI50
F0.0016566666666666667
sI51
F0.0021216666666666667
sI52
F0.0016050000000000001
sI53
F0.0011566666666666667
sI54
F0.0010683333333333332
sI55
F0.0014633333333333334
sI56
F0.0011533333333333333
sI57
F0.0019466666666666666
sI58
F0.0011683333333333333
sI59
F0.0018666666666666666
sI60
F0.0017783333333333334
sI61
F0.0014450000000000001
sI62
F0.0014350000000000001
sI63
F0.00142
sI64
F0.012436666666666667
sI65
F0.0011566666666666667
sI66
F0.0042233333333333333
sI67
F0.0031416666666666667
sI68
F0.00314
sI69
F0.0011983333333333334
sI70
F0.0021116666666666666
sI71
F0.001885
sI72
F0.00116
sI73
F0.0021333333333333334
sI74
F0.0018766666666666667
sI75
F0.0019633333333333334
sI76
F0.00191
sI77
F0.0016100000000000001
sI78
F0.0015433333333333334
sI79
F0.0016283333333333334
sI80
F0.0011333333333333334
sI81
F0.0019483333333333334
sI82
F0.0017899999999999999
sI83
F0.0010916666666666666
sI84
F0.0011116666666666666
sI85
F0.0011366666666666667
sI86
F0.0013633333333333334
sI87
F0.0011316666666666667
sI88
F0.0023766666666666667
sI89
F0.0021050000000000001
sI90
F0.0011283333333333334
sI91
F0.0016299999999999999
sI92
F0.0011716666666666666
sI93
F0.0014499999999999999
sI94
F0.0013533333333333333
sI95
F0.0013766666666666667
sI96
F0.013858333333333334
sI97
F0.0043449999999999999
sI98
F0.0031183333333333332
sI99
F0.0011683333333333333
sI100
F0.0019516666666666667
sI101
F0.0017483333333333333
sI102
F0.0011516666666666667
sI103
F0.0015916666666666666
sI104
F0.0026016666666666666
sI105
F0.0021966666666666666
sI106
F0.0019583333333333332
sI107
F0.0018083333333333332
sI108
F0.0016866666666666666
sI109
F0.0015233333333333334
sI110
F0.0013666666666666666
sI111
F0.0014583333333333334
sI112
F0.0022016666666666669
sI113
F0.0011366666666666667
sI114
F0.0017016666666666666
sI115
F0.0016933333333333334
sI116
F0.0015466666666666667
sI117
F0.0010383333333333334
sI118
F0.00139
sI119
F0.0014566666666666667
sI120
F0.0023683333333333334
sI121
F0.0019816666666666667
sI122
F0.0017333333333333333
sI123
F0.0017799999999999999
sI124
F0.0015666666666666667
sI125
F0.00148
sI126
F0.0011266666666666667
sI127
F0.0014616666666666667
sI128
F0.02775
sI129
F0.0051149999999999998
sI130
F0.0033600000000000001
sI131
F0.00109
sI132
F0.0022616666666666666
sI133
F0.0018983333333333333
sI134
F0.001665
sI135
F0.0017016666666666666
sI136
F0.0024133333333333333
sI137
F0.0012166666666666667
sI138
F0.0011016666666666666
sI139
F0.0017099999999999999
sI140
F0.0016316666666666667
sI141
F0.0015183333333333333
sI142
F0.0013716666666666667
sI143
F0.001475
sI144
F0.0023649999999999999
sI145
F0.0020033333333333335
sI146
F0.0010150000000000001
sI147
F0.0011800000000000001
sI148
F0.0017316666666666667
sI149
F0.00158
sI150
F0.0014783333333333332
sI151
F0.001395
sI152
F0.0021783333333333333
sI153
F0.001085
sI154
F0.0011216666666666666
sI155
F0.0016133333333333334
sI156
F0.0015633333333333332
sI157
F0.0011133333333333334
sI158
F0.0013566666666666666
sI159
F0.0014566666666666667
sI160
F0.0060866666666666664
sI161
F0.0033516666666666669
sI162
F0.0026066666666666669
sI163
F0.0022766666666666669
sI164
F0.0021783333333333333
sI165
F0.0010816666666666668
sI166
F0.022511666666666666
sI167
F0.0034983333333333333
sI168
F0.00348
sI169
F0.0028733333333333332
sI170
F0.0022216666666666665
sI171
F0.0019983333333333333
sI172
F0.0010783333333333333
sI173
F0.0016566666666666667
sI174
F0.00158
sI175
F0.0014716666666666667
sI176
F0.002575
sI177
F0.0020966666666666668
sI178
F0.001815
sI179
F0.0010633333333333332
sI180
F0.0016050000000000001
sI181
F0.0014866666666666667
sI182
F0.0010950000000000001
sI183
F0.0014683333333333334
sI184
F0.0023349999999999998
sI185
F0.0011466666666666667
sI186
F0.0011199999999999999
sI187
F0.001805
sI188
F0.0016016666666666666
sI189
F0.0011383333333333334
sI190
F0.0014416666666666666
sI191
F0.0013500000000000001
sI192
F0.0011416666666666667
sI193
F0.012019999999999999
sI194
F0.0010516666666666667
sI195
F0.0011333333333333334
sI196
F0.001085
sI197
F0.0038899999999999998
sI198
F0.0033050000000000002
sI199
F0.0023566666666666666
sI200
F0.0029833333333333335
sI201
F0.0010766666666666667
sI202
F0.0021783333333333333
sI203
F0.0021549999999999998
sI204
F0.0019066666666666668
sI205
F0.0016100000000000001
sI206
F0.001565
sI207
F0.0015883333333333333
sI208
F0.0011166666666666666
sI209
F0.0019833333333333335
sI210
F0.0018649999999999999
sI211
F0.001835
sI212
F0.0011033333333333333
sI213
F0.0016066666666666666
sI214
F0.00197
sI215
F0.0014933333333333333
sI216
F0.0021766666666666666
sI217
F0.0019083333333333333
sI218
F0.00106
sI219
F0.0020033333333333335
sI220
F0.00117
sI221
F0.0014816666666666667
sI222
F0.0014499999999999999
sI223
F0.0015333333333333334
sI224
F0.0011116666666666666
sI225
F0.0010916666666666666
sI226
F0.0011766666666666666
sI227
F0.0056649999999999999
sI228
F0.0051450000000000003
sI229
F0.0010683333333333332
sI230
F0.0037533333333333333
sI231
F0.0011516666666666667
sI232
F0.0027133333333333332
sI233
F0.0021966666666666666
sI234
F0.0010916666666666666
sI235
F0.0025216666666666668
sI236
F0.0011166666666666666
sI237
F0.0011116666666666666
sI238
F0.0011266666666666667
sI239
F0.0015083333333333333
sI240
F0.0028716666666666665
sI241
F0.0020349999999999999
sI242
F0.0018983333333333333
sI243
F0.0019366666666666666
sI244
F0.0016916666666666666
sI245
F0.0015250000000000001
sI246
F0.0011233333333333334
sI247
F0.0013649999999999999
sI248
F0.0023333333333333335
sI249
F0.0020899999999999998
sI250
F0.0018583333333333334
sI251
F0.0016299999999999999
sI252
F0.0015966666666666666
sI253
F0.00148
sI254
F0.0014016666666666667
sI255
F0.0010783333333333333
sI256
F0.03178333333333333
sI257
F0.0060366666666666667
sI258
F0.0033616666666666669
sI259
F0.0021433333333333335
sI260
F0.0010983333333333333
sI261
F0.0011166666666666666
sI262
F0.0012133333333333334
sI263
F0.0017816666666666666
sI264
F0.0027650000000000001
sI265
F0.0010483333333333334
sI266
F0.0010733333333333333
sI267
F0.0016333333333333334
sI268
F0.001145
sI269
F0.0015283333333333334
sI270
F0.0015349999999999999
sI271
F0.0014549999999999999
sI272
F0.0023466666666666666
sI273
F0.0020316666666666669
sI274
F0.0017966666666666667
sI275
F0.0010233333333333333
sI276
F0.0015833333333333333
sI277
F0.0011100000000000001
sI278
F0.0014316666666666666
sI279
F0.0015216666666666666
sI280
F0.0010833333333333333
sI281
F0.0019083333333333333
sI282
F0.0017083333333333334
sI283
F0.0011083333333333333
sI284
F0.0016149999999999999
sI285
F0.0015933333333333333
sI286
F0.0014283333333333333
sI287
F0.0013749999999999999
sI288
F0.009195
sI289
F0.004188333333333333
sI290
F0.0028433333333333331
sI291
F0.00116
sI292
F0.0020616666666666665
sI293
F0.0017683333333333333
sI294
F0.0017433333333333333
sI295
F0.00116
sI296
F0.0025100000000000001
sI297
F0.002065
sI298
F0.00183
sI299
F0.0017683333333333333
sI300
F0.0016050000000000001
sI301
F0.0016100000000000001
sI302
F0.0014649999999999999
sI303
F0.0014233333333333333
sI304
F0.0022883333333333332
sI305
F0.0011183333333333334
sI306
F0.001725
sI307
F0.0015900000000000001
sI308
F0.0011349999999999999
sI309
F0.0013916666666666667
sI310
F0.0015116666666666666
sI311
F0.0014466666666666666
sI312
F0.0021266666666666665
sI313
F0.0017016666666666666
sI314
F0.0017833333333333334
sI315
F0.00109
sI316
F0.0015466666666666667
sI317
F0.00148
sI318
F0.0015333333333333334
sI319
F0.0014433333333333334
sI320
F0.0062166666666666663
sI321
F0.0031199999999999999
sI322
F0.0023366666666666666
sI323
F0.0021700000000000001
sI324
F0.0019783333333333332
ssg739
F0.72477999999999998
sstp746
a(g11
(tRp747
S'workload'
p748
g11
(tRp749
S'n_contents'
p750
I30000
sS'rank_per_group'
p751
I4
sS'name'
p752
S'DIFFRANK'
p753
sS'n_warmup'
p754
I60000
sS'rate'
p755
F300
sS'n_measured'
p756
I600000
sS'alpha'
p757
F1
sS'n_rank'
p758
I4
ssS'group'
p759
g11
(tRp760
g752
S'NOTGROUP'
p761
ssS'cache_policy'
p762
g11
(tRp763
g752
S'LRU'
p764
ssS'content_placement'
p765
g11
(tRp766
g752
S'UNIFORM'
p767
ssS'strategy'
p768
g11
(tRp769
g752
S'NRR'
p770
ssS'rankgroup'
p771
g11
(tRp772
g752
S'4,NOTGROUP'
p773
ssS'cache_placement'
p774
g11
(tRp775
S'network_cache'
p776
F0.040000000000000001
sg752
g767
ssS'desc'
p777
S'Alpha: 1.0, strategy: NRR,  network cache: 0.04, topology: Edgefog, num of datastore: 1, rank&group: 4,NOTGROUP. '
p778
sS'topology'
p779
g11
(tRp780
S'n_node'
p781
I320
sS'n_datastore'
p782
I1
sg752
S'EDGEFOG'
p783
sS'n_member'
p784
I320
ssg11
(tRp785
S'LATENCY'
p786
g11
(tRp787
S'MEAN'
p788
F55.988054667063999
ssS'CACHE_HIT_RATIO'
p789
g11
(tRp790
S'PER_NODE_SERVER_HIT_RATIO'
p791
g11
(tRp792
I0
F0.64651333333333338
ssS'PER_NODE_CACHE_HIT_RATIO'
p793
g11
(tRp794
I2
F0.001075
sI3
F0.0010150000000000001
sI4
F0.0010300000000000001
sI5
F0.0011349999999999999
sI6
F0.0011266666666666667
sI7
F0.0010549999999999999
sI8
F0.0010833333333333333
sI9
F0.0011016666666666666
sI10
F0.00097999999999999997
sI11
F0.0012133333333333334
sI12
F0.0011950000000000001
sI13
F0.0010883333333333333
sI14
F0.0011016666666666666
sI15
F0.0011333333333333334
sI16
F0.0011616666666666668
sI17
F0.0010866666666666668
sI18
F0.0011199999999999999
sI19
F0.0010449999999999999
sI20
F0.0011050000000000001
sI21
F0.0011133333333333334
sI22
F0.0011033333333333333
sI23
F0.0011366666666666667
sI24
F0.0010883333333333333
sI25
F0.00098833333333333325
sI26
F0.0011583333333333333
sI27
F0.0010766666666666667
sI28
F0.0011633333333333333
sI29
F0.0011233333333333334
sI30
F0.0010816666666666668
sI31
F0.0011266666666666667
sI32
F0.0010616666666666667
sI33
F0.0010833333333333333
sI34
F0.0011233333333333334
sI35
F0.0011100000000000001
sI36
F0.0011483333333333332
sI37
F0.0010233333333333333
sI38
F0.0010950000000000001
sI39
F0.0011100000000000001
sI40
F0.0012116666666666667
sI41
F0.0010816666666666668
sI42
F0.001145
sI43
F0.0010733333333333333
sI44
F0.0010516666666666667
sI45
F0.0011333333333333334
sI46
F0.0011466666666666667
sI47
F0.0010300000000000001
sI48
F0.0011883333333333333
sI49
F0.0011066666666666666
sI50
F0.0011233333333333334
sI51
F0.0011533333333333333
sI52
F0.0010433333333333334
sI53
F0.0011066666666666666
sI54
F0.0011466666666666667
sI55
F0.0011216666666666666
sI56
F0.0010983333333333333
sI57
F0.001175
sI58
F0.0010566666666666667
sI59
F0.0011333333333333334
sI60
F0.0010416666666666667
sI61
F0.0011166666666666666
sI62
F0.0011533333333333333
sI63
F0.0011316666666666667
sI64
F0.0011283333333333334
sI65
F0.00115
sI66
F0.0011116666666666666
sI67
F0.0010316666666666666
sI68
F0.0011249999999999999
sI69
F0.0011166666666666666
sI70
F0.0011083333333333333
sI71
F0.0010983333333333333
sI72
F0.0010133333333333333
sI73
F0.00115
sI74
F0.0011833333333333333
sI75
F0.0012083333333333334
sI76
F0.0011716666666666666
sI77
F0.0011833333333333333
sI78
F0.00114
sI79
F0.0010716666666666667
sI80
F0.001075
sI81
F0.0011766666666666666
sI82
F0.0011299999999999999
sI83
F0.00106
sI84
F0.0011016666666666666
sI85
F0.0010866666666666668
sI86
F0.0010883333333333333
sI87
F0.00108
sI88
F0.00115
sI89
F0.0011016666666666666
sI90
F0.001145
sI91
F0.0011616666666666668
sI92
F0.0010549999999999999
sI93
F0.0011233333333333334
sI94
F0.0011033333333333333
sI95
F0.0010866666666666668
sI96
F0.0011249999999999999
sI97
F0.0011216666666666666
sI98
F0.0011166666666666666
sI99
F0.0011066666666666666
sI100
F0.0011066666666666666
sI101
F0.001075
sI102
F0.0010416666666666667
sI103
F0.0011566666666666667
sI104
F0.0010183333333333333
sI105
F0.0011816666666666666
sI106
F0.0011166666666666666
sI107
F0.0011683333333333333
sI108
F0.0011150000000000001
sI109
F0.0010616666666666667
sI110
F0.0010416666666666667
sI111
F0.0010499999999999999
sI112
F0.0011133333333333334
sI113
F0.0011000000000000001
sI114
F0.0011950000000000001
sI115
F0.0011283333333333334
sI116
F0.0010950000000000001
sI117
F0.0011183333333333334
sI118
F0.0010833333333333333
sI119
F0.0011249999999999999
sI120
F0.0010866666666666668
sI121
F0.0010950000000000001
sI122
F0.00099666666666666675
sI123
F0.0010233333333333333
sI124
F0.0011083333333333333
sI125
F0.0011883333333333333
sI126
F0.0010266666666666666
sI127
F0.0010616666666666667
sI128
F0.0010616666666666667
sI129
F0.0010683333333333332
sI130
F0.001065
sI131
F0.0011083333333333333
sI132
F0.0012033333333333334
sI133
F0.0011383333333333334
sI134
F0.0011900000000000001
sI135
F0.001155
sI136
F0.0011383333333333334
sI137
F0.0010633333333333332
sI138
F0.0011083333333333333
sI139
F0.0011199999999999999
sI140
F0.0011183333333333334
sI141
F0.0010266666666666666
sI142
F0.0011299999999999999
sI143
F0.0010549999999999999
sI144
F0.0011383333333333334
sI145
F0.0011166666666666666
sI146
F0.0011349999999999999
sI147
F0.001005
sI148
F0.0011183333333333334
sI149
F0.0010566666666666667
sI150
F0.0011083333333333333
sI151
F0.0010866666666666668
sI152
F0.0011583333333333333
sI153
F0.001075
sI154
F0.00109
sI155
F0.0011100000000000001
sI156
F0.0011716666666666666
sI157
F0.0011616666666666668
sI158
F0.0011050000000000001
sI159
F0.0011466666666666667
sI160
F0.001175
sI161
F0.0011466666666666667
sI162
F0.001065
sI163
F0.0010766666666666667
sI164
F0.0010783333333333333
sI165
F0.0010833333333333333
sI166
F0.001085
sI167
F0.0011733333333333333
sI168
F0.0010950000000000001
sI169
F0.0011166666666666666
sI170
F0.0011199999999999999
sI171
F0.0010533333333333334
sI172
F0.0010266666666666666
sI173
F0.0011183333333333334
sI174
F0.0011783333333333333
sI175
F0.0010683333333333332
sI176
F0.0010166666666666666
sI177
F0.0010733333333333333
sI178
F0.0011116666666666666
sI179
F0.0010633333333333332
sI180
F0.001065
sI181
F0.00117
sI182
F0.0010966666666666666
sI183
F0.0011233333333333334
sI184
F0.0011050000000000001
sI185
F0.0010916666666666666
sI186
F0.0010583333333333334
sI187
F0.0010733333333333333
sI188
F0.00115
sI189
F0.0011416666666666667
sI190
F0.00106
sI191
F0.0011000000000000001
sI192
F0.0011166666666666666
sI193
F0.0010866666666666668
sI194
F0.0010383333333333334
sI195
F0.0010516666666666667
sI196
F0.0011183333333333334
sI197
F0.0011283333333333334
sI198
F0.0010766666666666667
sI199
F0.0011150000000000001
sI200
F0.0010716666666666667
sI201
F0.0011283333333333334
sI202
F0.0011199999999999999
sI203
F0.00101
sI204
F0.0011083333333333333
sI205
F0.0011616666666666668
sI206
F0.0011050000000000001
sI207
F0.0011083333333333333
sI208
F0.0010983333333333333
sI209
F0.0010716666666666667
sI210
F0.0010983333333333333
sI211
F0.0011416666666666667
sI212
F0.0010583333333333334
sI213
F0.0011883333333333333
sI214
F0.0010883333333333333
sI215
F0.0010916666666666666
sI216
F0.0010566666666666667
sI217
F0.0011383333333333334
sI218
F0.0011166666666666666
sI219
F0.00115
sI220
F0.0010950000000000001
sI221
F0.00116
sI222
F0.0010383333333333334
sI223
F0.0011216666666666666
sI224
F0.0012049999999999999
sI225
F0.0011566666666666667
sI226
F0.0011333333333333334
sI227
F0.0011183333333333334
sI228
F0.0011133333333333334
sI229
F0.0010633333333333332
sI230
F0.0011166666666666666
sI231
F0.0011316666666666667
sI232
F0.0010383333333333334
sI233
F0.00109
sI234
F0.0011116666666666666
sI235
F0.00108
sI236
F0.0010333333333333334
sI237
F0.0010549999999999999
sI238
F0.0010816666666666668
sI239
F0.0011083333333333333
sI240
F0.0011150000000000001
sI241
F0.0010933333333333333
sI242
F0.00107
sI243
F0.0010566666666666667
sI244
F0.0010883333333333333
sI245
F0.0011133333333333334
sI246
F0.0011016666666666666
sI247
F0.0011283333333333334
sI248
F0.0011050000000000001
sI249
F0.0011199999999999999
sI250
F0.00108
sI251
F0.00098666666666666672
sI252
F0.0011516666666666667
sI253
F0.0011816666666666666
sI254
F0.0011933333333333334
sI255
F0.0011283333333333334
sI256
F0.0010816666666666668
sI257
F0.00109
sI258
F0.0011316666666666667
sI259
F0.0009766666666666667
sI260
F0.0011349999999999999
sI261
F0.0011483333333333332
sI262
F0.0011249999999999999
sI263
F0.00106
sI264
F0.0010816666666666668
sI265
F0.0012083333333333334
sI266
F0.0010366666666666666
sI267
F0.0011133333333333334
sI268
F0.0011016666666666666
sI269
F0.0011416666666666667
sI270
F0.0010866666666666668
sI271
F0.0011316666666666667
sI272
F0.0011199999999999999
sI273
F0.0011133333333333334
sI274
F0.0010916666666666666
sI275
F0.0011433333333333334
sI276
F0.0011316666666666667
sI277
F0.0010433333333333334
sI278
F0.0011466666666666667
sI279
F0.0011166666666666666
sI280
F0.0010516666666666667
sI281
F0.0010983333333333333
sI282
F0.0011216666666666666
sI283
F0.0011266666666666667
sI284
F0.0011183333333333334
sI285
F0.0011866666666666666
sI286
F0.00115
sI287
F0.0010683333333333332
sI288
F0.00107
sI289
F0.0011299999999999999
sI290
F0.00094833333333333336
sI291
F0.0011283333333333334
sI292
F0.0010349999999999999
sI293
F0.0011150000000000001
sI294
F0.0010583333333333334
sI295
F0.0011249999999999999
sI296
F0.0011583333333333333
sI297
F0.0010950000000000001
sI298
F0.0011050000000000001
sI299
F0.0011050000000000001
sI300
F0.0011766666666666666
sI301
F0.0010616666666666667
sI302
F0.0011066666666666666
sI303
F0.0011833333333333333
sI304
F0.0011533333333333333
sI305
F0.0010916666666666666
sI306
F0.0011133333333333334
sI307
F0.0010516666666666667
sI308
F0.0010916666666666666
sI309
F0.0010399999999999999
sI310
F0.0010300000000000001
sI311
F0.0010566666666666667
sI312
F0.0010399999999999999
sI313
F0.0010833333333333333
sI314
F0.0011366666666666667
sI315
F0.0011633333333333333
sI316
F0.0011583333333333333
sI317
F0.00109
sI318
F0.0011016666666666666
sI319
F0.0011516666666666667
sI320
F0.0010466666666666667
sI321
F0.0011033333333333333
ssg788
F0.35348666666666667
sstp795
a(g11
(tRp796
S'workload'
p797
g11
(tRp798
S'n_contents'
p799
I30000
sS'rank_per_group'
p800
I1
sS'name'
p801
S'DIFFRANK'
p802
sS'n_warmup'
p803
I60000
sS'rate'
p804
F300
sS'n_measured'
p805
I600000
sS'alpha'
p806
F1
sS'n_rank'
p807
I32
ssS'group'
p808
g11
(tRp809
g801
S'GROUP'
p810
ssS'cache_policy'
p811
g11
(tRp812
g801
S'LRU'
p813
ssS'content_placement'
p814
g11
(tRp815
g801
S'UNIFORM'
p816
ssS'strategy'
p817
g11
(tRp818
g801
S'NRR'
p819
ssS'rankgroup'
p820
g11
(tRp821
g801
S'32,GROUP'
p822
ssS'cache_placement'
p823
g11
(tRp824
S'network_cache'
p825
F0.050000000000000003
sg801
g816
ssS'desc'
p826
S'Alpha: 1.0, strategy: NRR,  network cache: 0.05, topology: Edgefog, num of datastore: 1, rank&group: 32,GROUP. '
p827
sS'topology'
p828
g11
(tRp829
S'n_node'
p830
I320
sS'n_datastore'
p831
I1
sg801
S'EDGEFOG'
p832
sS'n_member'
p833
I10
ssg11
(tRp834
S'LATENCY'
p835
g11
(tRp836
S'MEAN'
p837
F36.142919999999997
ssS'CACHE_HIT_RATIO'
p838
g11
(tRp839
S'PER_NODE_SERVER_HIT_RATIO'
p840
g11
(tRp841
I0
F0.42424499999999998
ssS'PER_NODE_CACHE_HIT_RATIO'
p842
g11
(tRp843
I33
F0.0033600000000000001
sI34
F0.0016866666666666666
sI35
F0.0016233333333333334
sI36
F0.0015150000000000001
sI37
F0.001175
sI38
F0.00142
sI39
F0.0014883333333333333
sI40
F0.0023516666666666668
sI41
F0.0017716666666666666
sI42
F0.0016299999999999999
sI43
F0.0028416666666666668
sI44
F0.0017683333333333333
sI45
F0.001555
sI46
F0.001415
sI47
F0.0014083333333333333
sI48
F0.0023050000000000002
sI49
F0.001155
sI50
F0.001915
sI51
F0.0017766666666666666
sI52
F0.00167
sI53
F0.0011366666666666667
sI54
F0.0026700000000000001
sI55
F0.0015466666666666667
sI56
F0.002405
sI57
F0.0021333333333333334
sI58
F0.0018649999999999999
sI59
F0.0016466666666666667
sI60
F0.001575
sI61
F0.0014116666666666668
sI62
F0.0015633333333333332
sI63
F0.001405
sI64
F0.0035533333333333333
sI65
F0.0020216666666666668
sI66
F0.0016733333333333333
sI67
F0.0015250000000000001
sI68
F0.0015250000000000001
sI69
F0.0014933333333333333
sI70
F0.0014233333333333333
sI71
F0.0013216666666666667
sI72
F0.0019633333333333334
sI73
F0.00329
sI74
F0.0018433333333333333
sI75
F0.0015066666666666666
sI76
F0.0011783333333333333
sI77
F0.0016116666666666666
sI78
F0.00141
sI79
F0.0014466666666666666
sI80
F0.0023549999999999999
sI81
F0.0017333333333333333
sI82
F0.0016266666666666667
sI83
F0.0027316666666666665
sI84
F0.0016216666666666667
sI85
F0.0015183333333333333
sI86
F0.0012683333333333333
sI87
F0.0014350000000000001
sI88
F0.0022483333333333335
sI89
F0.0019216666666666666
sI90
F0.0017316666666666667
sI91
F0.00172
sI92
F0.0016233333333333334
sI93
F0.0015166666666666666
sI94
F0.0014016666666666667
sI95
F0.0014283333333333333
sI96
F0.0037833333333333334
sI97
F0.0021766666666666666
sI98
F0.00189
sI99
F0.0016583333333333333
sI100
F0.00166
sI101
F0.0015266666666666666
sI102
F0.0012516666666666668
sI103
F0.0026150000000000001
sI104
F0.0011933333333333334
sI105
F0.0022783333333333332
sI106
F0.0017583333333333333
sI107
F0.0016433333333333332
sI108
F0.0015983333333333333
sI109
F0.00141
sI110
F0.0016133333333333334
sI111
F0.0015683333333333333
sI112
F0.0023783333333333334
sI113
F0.0033283333333333333
sI114
F0.0019066666666666668
sI115
F0.0015499999999999999
sI116
F0.0011516666666666667
sI117
F0.0015133333333333333
sI118
F0.001315
sI119
F0.0013600000000000001
sI120
F0.0023749999999999999
sI121
F0.0017083333333333334
sI122
F0.0016083333333333334
sI123
F0.00158
sI124
F0.0012149999999999999
sI125
F0.0014783333333333332
sI126
F0.0011616666666666668
sI127
F0.0013833333333333334
sI128
F0.0035133333333333332
sI129
F0.002235
sI130
F0.0017600000000000001
sI131
F0.0016683333333333333
sI132
F0.0015433333333333334
sI133
F0.0029433333333333334
sI134
F0.0016516666666666667
sI135
F0.001495
sI136
F0.00125
sI137
F0.0022966666666666665
sI138
F0.002
sI139
F0.0017700000000000001
sI140
F0.0012099999999999999
sI141
F0.0016266666666666667
sI142
F0.0016316666666666667
sI143
F0.0026383333333333332
sI144
F0.0025833333333333333
sI145
F0.0017716666666666666
sI146
F0.0016733333333333333
sI147
F0.0016033333333333333
sI148
F0.0015733333333333333
sI149
F0.00148
sI150
F0.0014450000000000001
sI151
F0.0013666666666666666
sI152
F0.0020266666666666666
sI153
F0.0018500000000000001
sI154
F0.0016916666666666666
sI155
F0.0011666666666666668
sI156
F0.001555
sI157
F0.0014266666666666666
sI158
F0.0014833333333333332
sI159
F0.0014266666666666666
sI160
F0.0036449999999999998
sI161
F0.0020100000000000001
sI162
F0.0015816666666666668
sI163
F0.0028666666666666667
sI164
F0.0017083333333333334
sI165
F0.001505
sI166
F0.0015033333333333333
sI167
F0.0013500000000000001
sI168
F0.0024766666666666665
sI169
F0.0020049999999999998
sI170
F0.0017316666666666667
sI171
F0.0016483333333333332
sI172
F0.0016516666666666667
sI173
F0.0029433333333333334
sI174
F0.0016750000000000001
sI175
F0.0014733333333333334
sI176
F0.0024516666666666667
sI177
F0.0011866666666666666
sI178
F0.0012166666666666667
sI179
F0.002065
sI180
F0.0017816666666666666
sI181
F0.00115
sI182
F0.0015883333333333333
sI183
F0.0016816666666666666
sI184
F0.0024233333333333333
sI185
F0.0018550000000000001
sI186
F0.0011950000000000001
sI187
F0.0016516666666666667
sI188
F0.0014766666666666667
sI189
F0.0015516666666666667
sI190
F0.0014516666666666666
sI191
F0.0014833333333333332
sI192
F0.0032716666666666666
sI193
F0.0033116666666666668
sI194
F0.0017366666666666667
sI195
F0.0011950000000000001
sI196
F0.001505
sI197
F0.0015266666666666666
sI198
F0.001395
sI199
F0.0014866666666666667
sI200
F0.0022950000000000002
sI201
F0.0018516666666666666
sI202
F0.0015983333333333333
sI203
F0.0028133333333333335
sI204
F0.0015399999999999999
sI205
F0.0016233333333333334
sI206
F0.0013799999999999999
sI207
F0.0014216666666666666
sI208
F0.0022599999999999999
sI209
F0.0020133333333333331
sI210
F0.0019116666666666668
sI211
F0.0016283333333333334
sI212
F0.0016033333333333333
sI213
F0.00263
sI214
F0.0016083333333333334
sI215
F0.0015183333333333333
sI216
F0.0024783333333333333
sI217
F0.0020216666666666668
sI218
F0.0017650000000000001
sI219
F0.0017049999999999999
sI220
F0.0016783333333333333
sI221
F0.0014250000000000001
sI222
F0.00158
sI223
F0.001395
sI224
F0.0038233333333333335
sI225
F0.0019466666666666666
sI226
F0.0016900000000000001
sI227
F0.0016033333333333333
sI228
F0.0015533333333333334
sI229
F0.0014783333333333332
sI230
F0.0014633333333333334
sI231
F0.0014283333333333333
sI232
F0.0019983333333333333
sI233
F0.0032033333333333332
sI234
F0.0018699999999999999
sI235
F0.0015499999999999999
sI236
F0.0015150000000000001
sI237
F0.0013466666666666666
sI238
F0.0014233333333333333
sI239
F0.0015299999999999999
sI240
F0.00233
sI241
F0.001905
sI242
F0.00166
sI243
F0.0029716666666666667
sI244
F0.0016416666666666667
sI245
F0.001415
sI246
F0.0014716666666666667
sI247
F0.001395
sI248
F0.0023133333333333335
sI249
F0.0020183333333333334
sI250
F0.00181
sI251
F0.0015150000000000001
sI252
F0.001245
sI253
F0.0015616666666666667
sI254
F0.0013983333333333332
sI255
F0.0014016666666666667
sI256
F0.0034849999999999998
sI257
F0.0020200000000000001
sI258
F0.0020100000000000001
sI259
F0.0017666666666666666
sI260
F0.0015333333333333334
sI261
F0.0014616666666666667
sI262
F0.0015066666666666666
sI263
F0.0026250000000000002
sI264
F0.0026849999999999999
sI265
F0.0018216666666666667
sI266
F0.0015449999999999999
sI267
F0.0016533333333333333
sI268
F0.0014616666666666667
sI269
F0.0011466666666666667
sI270
F0.0014450000000000001
sI271
F0.0015200000000000001
sI272
F0.0019849999999999998
sI273
F0.0031050000000000001
sI274
F0.0020366666666666667
sI275
F0.0012783333333333334
sI276
F0.0016233333333333334
sI277
F0.0014733333333333334
sI278
F0.0014516666666666666
sI279
F0.0014
sI280
F0.0023833333333333332
sI281
F0.0017883333333333334
sI282
F0.0015866666666666666
sI283
F0.0016116666666666666
sI284
F0.0013966666666666667
sI285
F0.00123
sI286
F0.0014566666666666667
sI287
F0.0014533333333333334
sI288
F0.00379
sI289
F0.002055
sI290
F0.0016633333333333333
sI291
F0.0016666666666666668
sI292
F0.0015716666666666667
sI293
F0.0026916666666666669
sI294
F0.00166
sI295
F0.00156
sI296
F0.00232
sI297
F0.0019949999999999998
sI298
F0.0018783333333333334
sI299
F0.0017566666666666666
sI300
F0.0011233333333333334
sI301
F0.0010983333333333333
sI302
F0.0014350000000000001
sI303
F0.0026649999999999998
sI304
F0.0025899999999999999
sI305
F0.0021749999999999999
sI306
F0.0017616666666666666
sI307
F0.0015449999999999999
sI308
F0.0012033333333333334
sI309
F0.0015016666666666668
sI310
F0.0015916666666666666
sI311
F0.0015366666666666666
sI312
F0.0010933333333333333
sI313
F0.00124
sI314
F0.0018683333333333334
sI315
F0.0015533333333333334
sI316
F0.001575
sI317
F0.0015716666666666667
sI318
F0.0014816666666666667
sI319
F0.0013649999999999999
sI320
F0.0038516666666666669
sI321
F0.0020049999999999998
sI322
F0.0017750000000000001
sI323
F0.0028516666666666668
sI324
F0.0017133333333333334
sI325
F0.0014316666666666666
sI326
F0.0013983333333333332
sI327
F0.0013500000000000001
sI328
F0.0012266666666666667
sI329
F0.00233
sI330
F0.001895
sI331
F0.0018833333333333334
sI332
F0.0016466666666666667
sI333
F0.0026166666666666669
sI334
F0.0016850000000000001
sI335
F0.001475
sI336
F0.0024783333333333333
sI337
F0.002085
sI338
F0.0018433333333333333
sI339
F0.0017183333333333334
sI340
F0.0015783333333333333
sI341
F0.0012233333333333334
sI342
F0.0015183333333333333
sI343
F0.0017066666666666667
sI344
F0.0023066666666666665
sI345
F0.0017466666666666668
sI346
F0.0017849999999999999
sI347
F0.001575
sI348
F0.0015383333333333334
sI349
F0.0012466666666666668
sI350
F0.0014166666666666668
sI351
F0.0015083333333333333
sI352
F0.0033266666666666666
ssg837
F0.57575500000000002
sstp844
a(g11
(tRp845
S'workload'
p846
g11
(tRp847
S'n_contents'
p848
I30000
sS'rank_per_group'
p849
I32
sS'name'
p850
S'DIFFRANK'
p851
sS'n_warmup'
p852
I60000
sS'rate'
p853
F300
sS'n_measured'
p854
I600000
sS'alpha'
p855
F1
sS'n_rank'
p856
I32
ssS'group'
p857
g11
(tRp858
g850
S'NOTGROUP'
p859
ssS'cache_policy'
p860
g11
(tRp861
g850
S'LRU'
p862
ssS'content_placement'
p863
g11
(tRp864
g850
S'UNIFORM'
p865
ssS'strategy'
p866
g11
(tRp867
g850
S'NRR'
p868
ssS'rankgroup'
p869
g11
(tRp870
g850
S'32,NOTGROUP'
p871
ssS'cache_placement'
p872
g11
(tRp873
S'network_cache'
p874
F0.050000000000000003
sg850
g865
ssS'desc'
p875
S'Alpha: 1.0, strategy: NRR,  network cache: 0.05, topology: Edgefog, num of datastore: 1, rank&group: 32,NOTGROUP. '
p876
sS'topology'
p877
g11
(tRp878
S'n_node'
p879
I320
sS'n_datastore'
p880
I1
sg850
S'EDGEFOG'
p881
sS'n_member'
p882
I320
ssg11
(tRp883
S'LATENCY'
p884
g11
(tRp885
S'MEAN'
p886
F53.898396667028045
ssS'CACHE_HIT_RATIO'
p887
g11
(tRp888
S'PER_NODE_SERVER_HIT_RATIO'
p889
g11
(tRp890
I0
F0.62238333333333329
ssS'PER_NODE_CACHE_HIT_RATIO'
p891
g11
(tRp892
I2
F0.0010816666666666668
sI3
F0.0012333333333333332
sI4
F0.0010566666666666667
sI5
F0.0012049999999999999
sI6
F0.0011566666666666667
sI7
F0.0011999999999999999
sI8
F0.0011950000000000001
sI9
F0.0011950000000000001
sI10
F0.0011249999999999999
sI11
F0.0011916666666666666
sI12
F0.0011833333333333333
sI13
F0.0012466666666666668
sI14
F0.00124
sI15
F0.0012016666666666666
sI16
F0.0012583333333333333
sI17
F0.0012033333333333334
sI18
F0.0012033333333333334
sI19
F0.0012266666666666667
sI20
F0.0012483333333333333
sI21
F0.0012149999999999999
sI22
F0.0011800000000000001
sI23
F0.0012116666666666667
sI24
F0.0012016666666666666
sI25
F0.0011566666666666667
sI26
F0.0011433333333333334
sI27
F0.0012016666666666666
sI28
F0.0012366666666666667
sI29
F0.0011850000000000001
sI30
F0.0011716666666666666
sI31
F0.0011800000000000001
sI32
F0.0012149999999999999
sI33
F0.0012283333333333332
sI34
F0.0011916666666666666
sI35
F0.0012066666666666667
sI36
F0.0012183333333333334
sI37
F0.001175
sI38
F0.0011683333333333333
sI39
F0.0011950000000000001
sI40
F0.0011349999999999999
sI41
F0.00115
sI42
F0.0011266666666666667
sI43
F0.0012199999999999999
sI44
F0.0011683333333333333
sI45
F0.0011766666666666666
sI46
F0.0011150000000000001
sI47
F0.0012233333333333334
sI48
F0.0012183333333333334
sI49
F0.0012849999999999999
sI50
F0.0011199999999999999
sI51
F0.0011666666666666668
sI52
F0.0012333333333333332
sI53
F0.0011999999999999999
sI54
F0.00116
sI55
F0.0011299999999999999
sI56
F0.001155
sI57
F0.0012183333333333334
sI58
F0.0011916666666666666
sI59
F0.0012216666666666667
sI60
F0.0011983333333333334
sI61
F0.0011000000000000001
sI62
F0.00124
sI63
F0.0011416666666666667
sI64
F0.0011900000000000001
sI65
F0.0011966666666666666
sI66
F0.0011050000000000001
sI67
F0.00108
sI68
F0.0012650000000000001
sI69
F0.0011100000000000001
sI70
F0.0010916666666666666
sI71
F0.0011150000000000001
sI72
F0.0011266666666666667
sI73
F0.0011133333333333334
sI74
F0.0011583333333333333
sI75
F0.0011733333333333333
sI76
F0.0011800000000000001
sI77
F0.0011883333333333333
sI78
F0.0012600000000000001
sI79
F0.0012116666666666667
sI80
F0.0011366666666666667
sI81
F0.0011683333333333333
sI82
F0.001145
sI83
F0.0011983333333333334
sI84
F0.0012066666666666667
sI85
F0.0012866666666666666
sI86
F0.0011800000000000001
sI87
F0.0011950000000000001
sI88
F0.0011249999999999999
sI89
F0.0011833333333333333
sI90
F0.0010499999999999999
sI91
F0.0011900000000000001
sI92
F0.0011150000000000001
sI93
F0.0012149999999999999
sI94
F0.0011916666666666666
sI95
F0.0010966666666666666
sI96
F0.001175
sI97
F0.0012066666666666667
sI98
F0.0011349999999999999
sI99
F0.0012816666666666666
sI100
F0.0011249999999999999
sI101
F0.0011133333333333334
sI102
F0.0011416666666666667
sI103
F0.0011866666666666666
sI104
F0.0012600000000000001
sI105
F0.0012166666666666667
sI106
F0.0011283333333333334
sI107
F0.0012316666666666667
sI108
F0.0011983333333333334
sI109
F0.0011916666666666666
sI110
F0.0011933333333333334
sI111
F0.0011833333333333333
sI112
F0.0011766666666666666
sI113
F0.0011050000000000001
sI114
F0.0011466666666666667
sI115
F0.0012066666666666667
sI116
F0.0010916666666666666
sI117
F0.0012033333333333334
sI118
F0.0011366666666666667
sI119
F0.0012066666666666667
sI120
F0.0012666666666666666
sI121
F0.001175
sI122
F0.0011366666666666667
sI123
F0.00106
sI124
F0.0011616666666666668
sI125
F0.0011999999999999999
sI126
F0.0012133333333333334
sI127
F0.0011583333333333333
sI128
F0.00107
sI129
F0.0012716666666666666
sI130
F0.001255
sI131
F0.0011966666666666666
sI132
F0.0011166666666666666
sI133
F0.00114
sI134
F0.0010916666666666666
sI135
F0.00117
sI136
F0.0011283333333333334
sI137
F0.0011516666666666667
sI138
F0.0011616666666666668
sI139
F0.001165
sI140
F0.0012083333333333334
sI141
F0.0010883333333333333
sI142
F0.001155
sI143
F0.0011416666666666667
sI144
F0.0011833333333333333
sI145
F0.001305
sI146
F0.0012116666666666667
sI147
F0.0011999999999999999
sI148
F0.0011683333333333333
sI149
F0.0010866666666666668
sI150
F0.0012750000000000001
sI151
F0.0012233333333333334
sI152
F0.001075
sI153
F0.0011516666666666667
sI154
F0.0012416666666666667
sI155
F0.0011800000000000001
sI156
F0.0011483333333333332
sI157
F0.0011916666666666666
sI158
F0.0010449999999999999
sI159
F0.0012116666666666667
sI160
F0.0011850000000000001
sI161
F0.00116
sI162
F0.001165
sI163
F0.0011216666666666666
sI164
F0.0011333333333333334
sI165
F0.0011616666666666668
sI166
F0.0011766666666666666
sI167
F0.0012733333333333333
sI168
F0.001145
sI169
F0.0012316666666666667
sI170
F0.0011666666666666668
sI171
F0.0011433333333333334
sI172
F0.00117
sI173
F0.0011950000000000001
sI174
F0.001175
sI175
F0.001155
sI176
F0.0012516666666666668
sI177
F0.0011816666666666666
sI178
F0.0012266666666666667
sI179
F0.0012416666666666667
sI180
F0.001225
sI181
F0.0011733333333333333
sI182
F0.0011983333333333334
sI183
F0.0012116666666666667
sI184
F0.001175
sI185
F0.0012166666666666667
sI186
F0.0010933333333333333
sI187
F0.0011733333333333333
sI188
F0.0012016666666666666
sI189
F0.0011383333333333334
sI190
F0.0011916666666666666
sI191
F0.0012049999999999999
sI192
F0.0010916666666666666
sI193
F0.0011816666666666666
sI194
F0.0011883333333333333
sI195
F0.0012049999999999999
sI196
F0.0012316666666666667
sI197
F0.0012016666666666666
sI198
F0.001225
sI199
F0.0011866666666666666
sI200
F0.0011683333333333333
sI201
F0.001165
sI202
F0.0012116666666666667
sI203
F0.0011733333333333333
sI204
F0.0011999999999999999
sI205
F0.0011783333333333333
sI206
F0.0012149999999999999
sI207
F0.0011516666666666667
sI208
F0.0012149999999999999
sI209
F0.0012416666666666667
sI210
F0.0011733333333333333
sI211
F0.00115
sI212
F0.0011800000000000001
sI213
F0.0011716666666666666
sI214
F0.0012433333333333333
sI215
F0.00115
sI216
F0.0011083333333333333
sI217
F0.0012166666666666667
sI218
F0.0012316666666666667
sI219
F0.00116
sI220
F0.0011333333333333334
sI221
F0.0011950000000000001
sI222
F0.001145
sI223
F0.0012733333333333333
sI224
F0.0011833333333333333
sI225
F0.0011733333333333333
sI226
F0.0012116666666666667
sI227
F0.0012116666666666667
sI228
F0.001155
sI229
F0.001085
sI230
F0.0011316666666666667
sI231
F0.0011216666666666666
sI232
F0.0011483333333333332
sI233
F0.0011716666666666666
sI234
F0.0011966666666666666
sI235
F0.0011850000000000001
sI236
F0.0011966666666666666
sI237
F0.001175
sI238
F0.001175
sI239
F0.0011900000000000001
sI240
F0.0011950000000000001
sI241
F0.001155
sI242
F0.00124
sI243
F0.0012733333333333333
sI244
F0.0011916666666666666
sI245
F0.0011516666666666667
sI246
F0.0011916666666666666
sI247
F0.0011533333333333333
sI248
F0.0012516666666666668
sI249
F0.0011999999999999999
sI250
F0.0012133333333333334
sI251
F0.0012016666666666666
sI252
F0.0011966666666666666
sI253
F0.0012583333333333333
sI254
F0.0011383333333333334
sI255
F0.0011800000000000001
sI256
F0.0011716666666666666
sI257
F0.0012099999999999999
sI258
F0.0011466666666666667
sI259
F0.0011349999999999999
sI260
F0.0011633333333333333
sI261
F0.0011800000000000001
sI262
F0.0011566666666666667
sI263
F0.0012166666666666667
sI264
F0.0012283333333333332
sI265
F0.0012283333333333332
sI266
F0.0011133333333333334
sI267
F0.0011966666666666666
sI268
F0.00123
sI269
F0.0011633333333333333
sI270
F0.00117
sI271
F0.0011583333333333333
sI272
F0.0012383333333333333
sI273
F0.0012049999999999999
sI274
F0.0011983333333333334
sI275
F0.0011883333333333333
sI276
F0.001145
sI277
F0.0012516666666666668
sI278
F0.0011883333333333333
sI279
F0.0012333333333333332
sI280
F0.0011299999999999999
sI281
F0.0012233333333333334
sI282
F0.0012083333333333334
sI283
F0.0011933333333333334
sI284
F0.0011866666666666666
sI285
F0.0011999999999999999
sI286
F0.0011566666666666667
sI287
F0.0011816666666666666
sI288
F0.0011433333333333334
sI289
F0.0010666666666666667
sI290
F0.0011783333333333333
sI291
F0.0012049999999999999
sI292
F0.00114
sI293
F0.0011483333333333332
sI294
F0.0011283333333333334
sI295
F0.0012633333333333333
sI296
F0.0011833333333333333
sI297
F0.0011416666666666667
sI298
F0.001235
sI299
F0.0011199999999999999
sI300
F0.0012149999999999999
sI301
F0.0011983333333333334
sI302
F0.0011883333333333333
sI303
F0.001175
sI304
F0.0011800000000000001
sI305
F0.0012616666666666666
sI306
F0.0012116666666666667
sI307
F0.0011633333333333333
sI308
F0.0012149999999999999
sI309
F0.0011800000000000001
sI310
F0.0012099999999999999
sI311
F0.0011066666666666666
sI312
F0.0011316666666666667
sI313
F0.001245
sI314
F0.0011266666666666667
sI315
F0.0012016666666666666
sI316
F0.0011183333333333334
sI317
F0.0011266666666666667
sI318
F0.0011516666666666667
sI319
F0.0012166666666666667
sI320
F0.0012266666666666667
sI321
F0.0011866666666666666
ssg886
F0.37761666666666666
sstp893
a(g11
(tRp894
S'workload'
p895
g11
(tRp896
S'n_contents'
p897
I30000
sS'rank_per_group'
p898
I1
sS'name'
p899
S'DIFFRANK'
p900
sS'n_warmup'
p901
I60000
sS'rate'
p902
F300
sS'n_measured'
p903
I600000
sS'alpha'
p904
F1
sS'n_rank'
p905
I4
ssS'group'
p906
g11
(tRp907
g899
S'GROUP'
p908
ssS'cache_policy'
p909
g11
(tRp910
g899
S'LRU'
p911
ssS'content_placement'
p912
g11
(tRp913
g899
S'UNIFORM'
p914
ssS'strategy'
p915
g11
(tRp916
g899
S'NRR'
p917
ssS'rankgroup'
p918
g11
(tRp919
g899
S'4,GROUP'
p920
ssS'cache_placement'
p921
g11
(tRp922
S'network_cache'
p923
F0.050000000000000003
sg899
g914
ssS'desc'
p924
S'Alpha: 1.0, strategy: NRR,  network cache: 0.05, topology: Edgefog, num of datastore: 1, rank&group: 4,GROUP. '
p925
sS'topology'
p926
g11
(tRp927
S'n_node'
p928
I320
sS'n_datastore'
p929
I1
sg899
S'EDGEFOG'
p930
sS'n_member'
p931
I80
ssg11
(tRp932
S'LATENCY'
p933
g11
(tRp934
S'MEAN'
p935
F32.076566666666665
ssS'CACHE_HIT_RATIO'
p936
g11
(tRp937
S'PER_NODE_SERVER_HIT_RATIO'
p938
g11
(tRp939
I0
F0.25452666666666668
ssS'PER_NODE_CACHE_HIT_RATIO'
p940
g11
(tRp941
I5
F0.020806666666666668
sI6
F0.0011333333333333334
sI7
F0.0036666666666666666
sI8
F0.0037083333333333334
sI9
F0.0029199999999999999
sI10
F0.0023149999999999998
sI11
F0.0012083333333333334
sI12
F0.0012333333333333332
sI13
F0.0018033333333333334
sI14
F0.0016416666666666667
sI15
F0.0010833333333333333
sI16
F0.0025166666666666666
sI17
F0.0011683333333333333
sI18
F0.0011866666666666666
sI19
F0.0017799999999999999
sI20
F0.0016216666666666667
sI21
F0.0016783333333333333
sI22
F0.0015866666666666666
sI23
F0.001565
sI24
F0.0023883333333333335
sI25
F0.0011933333333333334
sI26
F0.0019449999999999999
sI27
F0.0017600000000000001
sI28
F0.0015816666666666668
sI29
F0.0016850000000000001
sI30
F0.0015133333333333333
sI31
F0.0014816666666666667
sI32
F0.012816666666666667
sI33
F0.0012266666666666667
sI34
F0.0079433333333333335
sI35
F0.0037650000000000001
sI36
F0.0029333333333333334
sI37
F0.0011249999999999999
sI38
F0.0018316666666666668
sI39
F0.0020216666666666668
sI40
F0.0026450000000000002
sI41
F0.0011516666666666667
sI42
F0.0022266666666666667
sI43
F0.0019833333333333335
sI44
F0.0017616666666666666
sI45
F0.0017616666666666666
sI46
F0.00167
sI47
F0.001565
sI48
F0.0011733333333333333
sI49
F0.0022783333333333332
sI50
F0.0019650000000000002
sI51
F0.0023116666666666667
sI52
F0.0018550000000000001
sI53
F0.00156
sI54
F0.0016266666666666667
sI55
F0.0011633333333333333
sI56
F0.0012383333333333333
sI57
F0.0018866666666666667
sI58
F0.0012199999999999999
sI59
F0.0019849999999999998
sI60
F0.0016299999999999999
sI61
F0.0015266666666666666
sI62
F0.0015883333333333333
sI63
F0.0015916666666666666
sI64
F0.0011983333333333334
sI65
F0.0012216666666666667
sI66
F0.0057549999999999997
sI67
F0.0040433333333333337
sI68
F0.0032783333333333332
sI69
F0.0022000000000000001
sI70
F0.0020583333333333335
sI71
F0.0020216666666666668
sI72
F0.0024716666666666667
sI73
F0.0012566666666666666
sI74
F0.00191
sI75
F0.0011516666666666667
sI76
F0.0011199999999999999
sI77
F0.0015133333333333333
sI78
F0.00123
sI79
F0.0011850000000000001
sI80
F0.0011866666666666666
sI81
F0.0021250000000000002
sI82
F0.0020066666666666666
sI83
F0.0025683333333333335
sI84
F0.0019433333333333334
sI85
F0.001475
sI86
F0.001485
sI87
F0.0014283333333333333
sI88
F0.001155
sI89
F0.0021233333333333334
sI90
F0.0018266666666666668
sI91
F0.0017600000000000001
sI92
F0.0011433333333333334
sI93
F0.00116
sI94
F0.0014216666666666666
sI95
F0.0014450000000000001
sI96
F0.012776666666666667
sI97
F0.0044483333333333337
sI98
F0.0031350000000000002
sI99
F0.0022499999999999998
sI100
F0.0019300000000000001
sI101
F0.0016016666666666666
sI102
F0.001585
sI103
F0.0016266666666666667
sI104
F0.0025183333333333334
sI105
F0.002075
sI106
F0.001905
sI107
F0.0011533333333333333
sI108
F0.0011083333333333333
sI109
F0.0016016666666666666
sI110
F0.0014783333333333332
sI111
F0.0014683333333333334
sI112
F0.0023216666666666668
sI113
F0.0012266666666666667
sI114
F0.0011800000000000001
sI115
F0.0017683333333333333
sI116
F0.0017566666666666666
sI117
F0.0015349999999999999
sI118
F0.0015333333333333334
sI119
F0.0015533333333333334
sI120
F0.0022316666666666665
sI121
F0.0012133333333333334
sI122
F0.0017616666666666666
sI123
F0.0018333333333333333
sI124
F0.0015316666666666666
sI125
F0.0013983333333333332
sI126
F0.0015383333333333334
sI127
F0.0015316666666666666
sI128
F0.026796666666666667
sI129
F0.0058133333333333335
sI130
F0.0031616666666666668
sI131
F0.0026949999999999999
sI132
F0.0019350000000000001
sI133
F0.0019783333333333332
sI134
F0.0016866666666666666
sI135
F0.0015866666666666666
sI136
F0.0022766666666666669
sI137
F0.0012049999999999999
sI138
F0.0018583333333333334
sI139
F0.0017799999999999999
sI140
F0.0016516666666666667
sI141
F0.0016999999999999999
sI142
F0.0012233333333333334
sI143
F0.0014966666666666668
sI144
F0.0023966666666666667
sI145
F0.0020533333333333332
sI146
F0.0019533333333333334
sI147
F0.0017116666666666667
sI148
F0.0016066666666666666
sI149
F0.0017583333333333333
sI150
F0.0015883333333333333
sI151
F0.0011483333333333332
sI152
F0.0021216666666666667
sI153
F0.0019616666666666667
sI154
F0.0017799999999999999
sI155
F0.0017633333333333333
sI156
F0.0016333333333333334
sI157
F0.0011483333333333332
sI158
F0.0015466666666666667
sI159
F0.0014733333333333334
sI160
F0.0063350000000000004
sI161
F0.0035216666666666669
sI162
F0.0025416666666666665
sI163
F0.0021983333333333334
sI164
F0.0021066666666666668
sI165
F0.0011966666666666666
sI166
F0.021139999999999999
sI167
F0.0040033333333333336
sI168
F0.001245
sI169
F0.0030316666666666665
sI170
F0.0012199999999999999
sI171
F0.0011333333333333334
sI172
F0.002065
sI173
F0.0011533333333333333
sI174
F0.0019483333333333334
sI175
F0.0012333333333333332
sI176
F0.0012316666666666667
sI177
F0.0011783333333333333
sI178
F0.0020783333333333335
sI179
F0.0019499999999999999
sI180
F0.001745
sI181
F0.0016566666666666667
sI182
F0.001635
sI183
F0.00157
sI184
F0.00247
sI185
F0.0020799999999999998
sI186
F0.0011249999999999999
sI187
F0.0018883333333333332
sI188
F0.0016516666666666667
sI189
F0.00123
sI190
F0.0015566666666666667
sI191
F0.0015433333333333334
sI192
F0.00117
sI193
F0.0011283333333333334
sI194
F0.0012416666666666667
sI195
F0.0064683333333333337
sI196
F0.0035100000000000001
sI197
F0.0025783333333333335
sI198
F0.0024166666666666668
sI199
F0.0012233333333333334
sI200
F0.0028733333333333332
sI201
F0.0012366666666666667
sI202
F0.0021516666666666667
sI203
F0.0023383333333333333
sI204
F0.0018366666666666666
sI205
F0.0016916666666666666
sI206
F0.0016133333333333334
sI207
F0.0016100000000000001
sI208
F0.0012183333333333334
sI209
F0.0022483333333333335
sI210
F0.0018766666666666667
sI211
F0.00189
sI212
F0.0016383333333333334
sI213
F0.0016966666666666666
sI214
F0.0010916666666666666
sI215
F0.0015733333333333333
sI216
F0.0023866666666666667
sI217
F0.0020116666666666668
sI218
F0.0012199999999999999
sI219
F0.0011566666666666667
sI220
F0.0017616666666666666
sI221
F0.0016066666666666666
sI222
F0.0017049999999999999
sI223
F0.0012283333333333332
sI224
F0.0011266666666666667
sI225
F0.0097316666666666662
sI226
F0.0071516666666666664
sI227
F0.004581666666666667
sI228
F0.003705
sI229
F0.002565
sI230
F0.0012383333333333333
sI231
F0.0020583333333333335
sI232
F0.0027666666666666668
sI233
F0.0022699999999999999
sI234
F0.0011766666666666666
sI235
F0.0023900000000000002
sI236
F0.0011483333333333332
sI237
F0.0016783333333333333
sI238
F0.0016800000000000001
sI239
F0.0011349999999999999
sI240
F0.0033116666666666668
sI241
F0.0021050000000000001
sI242
F0.00191
sI243
F0.0019250000000000001
sI244
F0.0018183333333333333
sI245
F0.0017233333333333332
sI246
F0.0015783333333333333
sI247
F0.0014133333333333333
sI248
F0.0012333333333333332
sI249
F0.0021716666666666668
sI250
F0.0017816666666666666
sI251
F0.0011533333333333333
sI252
F0.0012366666666666667
sI253
F0.0015449999999999999
sI254
F0.001505
sI255
F0.0015066666666666666
sI256
F0.030996666666666665
sI257
F0.0081983333333333335
sI258
F0.0011316666666666667
sI259
F0.0031549999999999998
sI260
F0.0027866666666666665
sI261
F0.0023600000000000001
sI262
F0.0020233333333333331
sI263
F0.0018966666666666667
sI264
F0.0028149999999999998
sI265
F0.0023783333333333334
sI266
F0.0011266666666666667
sI267
F0.0019466666666666666
sI268
F0.0018183333333333333
sI269
F0.0016249999999999999
sI270
F0.00157
sI271
F0.0014183333333333333
sI272
F0.0023883333333333335
sI273
F0.0012166666666666667
sI274
F0.00197
sI275
F0.0017566666666666666
sI276
F0.0016999999999999999
sI277
F0.0016716666666666666
sI278
F0.0016199999999999999
sI279
F0.0015783333333333333
sI280
F0.0022866666666666669
sI281
F0.0020166666666666666
sI282
F0.0019433333333333334
sI283
F0.0012033333333333334
sI284
F0.0017083333333333334
sI285
F0.0015950000000000001
sI286
F0.0015416666666666667
sI287
F0.001255
sI288
F0.0011016666666666666
sI289
F0.0050949999999999997
sI290
F0.001155
sI291
F0.0030266666666666667
sI292
F0.0024666666666666665
sI293
F0.0019866666666666665
sI294
F0.0018566666666666666
sI295
F0.0012016666666666666
sI296
F0.0011116666666666666
sI297
F0.0022983333333333332
sI298
F0.0011366666666666667
sI299
F0.0019966666666666666
sI300
F0.0018699999999999999
sI301
F0.0011933333333333334
sI302
F0.0016533333333333333
sI303
F0.0016983333333333334
sI304
F0.0025583333333333335
sI305
F0.0019766666666666665
sI306
F0.0018566666666666666
sI307
F0.0011850000000000001
sI308
F0.0012099999999999999
sI309
F0.001635
sI310
F0.0015499999999999999
sI311
F0.0016566666666666667
sI312
F0.0021983333333333334
sI313
F0.0020466666666666667
sI314
F0.0011583333333333333
sI315
F0.0019433333333333334
sI316
F0.0017733333333333334
sI317
F0.0011916666666666666
sI318
F0.0011800000000000001
sI319
F0.0011050000000000001
sI320
F0.0079299999999999995
sI321
F0.003875
sI322
F0.0029733333333333335
sI323
F0.0011866666666666666
sI324
F0.0012183333333333334
ssg935
F0.74547333333333332
sstp942
a(g11
(tRp943
S'workload'
p944
g11
(tRp945
S'n_contents'
p946
I30000
sS'rank_per_group'
p947
I4
sS'name'
p948
S'DIFFRANK'
p949
sS'n_warmup'
p950
I60000
sS'rate'
p951
F300
sS'n_measured'
p952
I600000
sS'alpha'
p953
F1
sS'n_rank'
p954
I4
ssS'group'
p955
g11
(tRp956
g948
S'NOTGROUP'
p957
ssS'cache_policy'
p958
g11
(tRp959
g948
S'LRU'
p960
ssS'content_placement'
p961
g11
(tRp962
g948
S'UNIFORM'
p963
ssS'strategy'
p964
g11
(tRp965
g948
S'NRR'
p966
ssS'rankgroup'
p967
g11
(tRp968
g948
S'4,NOTGROUP'
p969
ssS'cache_placement'
p970
g11
(tRp971
S'network_cache'
p972
F0.050000000000000003
sg948
g963
ssS'desc'
p973
S'Alpha: 1.0, strategy: NRR,  network cache: 0.05, topology: Edgefog, num of datastore: 1, rank&group: 4,NOTGROUP. '
p974
sS'topology'
p975
g11
(tRp976
S'n_node'
p977
I320
sS'n_datastore'
p978
I1
sg948
S'EDGEFOG'
p979
sS'n_member'
p980
I320
ssg11
(tRp981
S'LATENCY'
p982
g11
(tRp983
S'MEAN'
p984
F53.876746667027675
ssS'CACHE_HIT_RATIO'
p985
g11
(tRp986
S'PER_NODE_SERVER_HIT_RATIO'
p987
g11
(tRp988
I0
F0.62213333333333332
ssS'PER_NODE_CACHE_HIT_RATIO'
p989
g11
(tRp990
I2
F0.0011916666666666666
sI3
F0.0010399999999999999
sI4
F0.0011983333333333334
sI5
F0.0012266666666666667
sI6
F0.0011966666666666666
sI7
F0.0012066666666666667
sI8
F0.0012383333333333333
sI9
F0.0011733333333333333
sI10
F0.0011466666666666667
sI11
F0.0012416666666666667
sI12
F0.0011583333333333333
sI13
F0.0011583333333333333
sI14
F0.0011566666666666667
sI15
F0.001175
sI16
F0.0011483333333333332
sI17
F0.0011433333333333334
sI18
F0.0011850000000000001
sI19
F0.0011249999999999999
sI20
F0.0011833333333333333
sI21
F0.0011866666666666666
sI22
F0.0011100000000000001
sI23
F0.0012266666666666667
sI24
F0.0012116666666666667
sI25
F0.001175
sI26
F0.0011733333333333333
sI27
F0.0010766666666666667
sI28
F0.0012483333333333333
sI29
F0.0012616666666666666
sI30
F0.0012600000000000001
sI31
F0.0011050000000000001
sI32
F0.0011616666666666668
sI33
F0.0011316666666666667
sI34
F0.0011900000000000001
sI35
F0.0012016666666666666
sI36
F0.0012233333333333334
sI37
F0.0011666666666666668
sI38
F0.00109
sI39
F0.001155
sI40
F0.0012166666666666667
sI41
F0.0012233333333333334
sI42
F0.0011016666666666666
sI43
F0.0011916666666666666
sI44
F0.0011783333333333333
sI45
F0.0012333333333333332
sI46
F0.0011933333333333334
sI47
F0.0012033333333333334
sI48
F0.0011633333333333333
sI49
F0.0011999999999999999
sI50
F0.0011966666666666666
sI51
F0.00115
sI52
F0.0012033333333333334
sI53
F0.0011066666666666666
sI54
F0.0011833333333333333
sI55
F0.0011116666666666666
sI56
F0.0011199999999999999
sI57
F0.0012466666666666668
sI58
F0.0011999999999999999
sI59
F0.0011883333333333333
sI60
F0.0011166666666666666
sI61
F0.0011216666666666666
sI62
F0.0011616666666666668
sI63
F0.0011583333333333333
sI64
F0.0011766666666666666
sI65
F0.0012099999999999999
sI66
F0.00123
sI67
F0.0011233333333333334
sI68
F0.0011033333333333333
sI69
F0.0011349999999999999
sI70
F0.0012416666666666667
sI71
F0.0010816666666666668
sI72
F0.0011533333333333333
sI73
F0.0012516666666666668
sI74
F0.0011116666666666666
sI75
F0.0012333333333333332
sI76
F0.0011199999999999999
sI77
F0.0011683333333333333
sI78
F0.0012049999999999999
sI79
F0.0011333333333333334
sI80
F0.0011466666666666667
sI81
F0.0011733333333333333
sI82
F0.0011216666666666666
sI83
F0.0012566666666666666
sI84
F0.0011816666666666666
sI85
F0.0011916666666666666
sI86
F0.0011883333333333333
sI87
F0.0011783333333333333
sI88
F0.00116
sI89
F0.0011883333333333333
sI90
F0.00114
sI91
F0.0011233333333333334
sI92
F0.0011150000000000001
sI93
F0.0011000000000000001
sI94
F0.00124
sI95
F0.0010933333333333333
sI96
F0.0011966666666666666
sI97
F0.0011066666666666666
sI98
F0.0011183333333333334
sI99
F0.0011033333333333333
sI100
F0.0011516666666666667
sI101
F0.0011616666666666668
sI102
F0.0011883333333333333
sI103
F0.00124
sI104
F0.0012149999999999999
sI105
F0.0011633333333333333
sI106
F0.0011950000000000001
sI107
F0.0011950000000000001
sI108
F0.0012566666666666666
sI109
F0.0012283333333333332
sI110
F0.0011416666666666667
sI111
F0.00116
sI112
F0.0011349999999999999
sI113
F0.0012083333333333334
sI114
F0.0012233333333333334
sI115
F0.0011266666666666667
sI116
F0.0010950000000000001
sI117
F0.0012083333333333334
sI118
F0.0011533333333333333
sI119
F0.0012216666666666667
sI120
F0.0011716666666666666
sI121
F0.0011349999999999999
sI122
F0.001175
sI123
F0.0011666666666666668
sI124
F0.0011983333333333334
sI125
F0.0011416666666666667
sI126
F0.0012466666666666668
sI127
F0.0012016666666666666
sI128
F0.0011966666666666666
sI129
F0.001075
sI130
F0.0011183333333333334
sI131
F0.0012166666666666667
sI132
F0.0012333333333333332
sI133
F0.0012266666666666667
sI134
F0.0012650000000000001
sI135
F0.0011816666666666666
sI136
F0.0011249999999999999
sI137
F0.0012133333333333334
sI138
F0.0012116666666666667
sI139
F0.0011249999999999999
sI140
F0.0011466666666666667
sI141
F0.0011666666666666668
sI142
F0.001235
sI143
F0.0011950000000000001
sI144
F0.0012133333333333334
sI145
F0.0011283333333333334
sI146
F0.00116
sI147
F0.0011349999999999999
sI148
F0.0012616666666666666
sI149
F0.0011900000000000001
sI150
F0.0011766666666666666
sI151
F0.0011433333333333334
sI152
F0.0012216666666666667
sI153
F0.0011233333333333334
sI154
F0.0011833333333333333
sI155
F0.0011633333333333333
sI156
F0.001255
sI157
F0.0011999999999999999
sI158
F0.0010950000000000001
sI159
F0.0012266666666666667
sI160
F0.0011983333333333334
sI161
F0.0011566666666666667
sI162
F0.0011683333333333333
sI163
F0.00124
sI164
F0.0011050000000000001
sI165
F0.0011983333333333334
sI166
F0.0012066666666666667
sI167
F0.0012099999999999999
sI168
F0.0012866666666666666
sI169
F0.001155
sI170
F0.0012949999999999999
sI171
F0.0011583333333333333
sI172
F0.0012183333333333334
sI173
F0.0011283333333333334
sI174
F0.0012183333333333334
sI175
F0.0011216666666666666
sI176
F0.0012666666666666666
sI177
F0.0012366666666666667
sI178
F0.0011883333333333333
sI179
F0.0012600000000000001
sI180
F0.0012383333333333333
sI181
F0.00117
sI182
F0.00116
sI183
F0.0011383333333333334
sI184
F0.001155
sI185
F0.0012083333333333334
sI186
F0.0012183333333333334
sI187
F0.0012016666666666666
sI188
F0.0011733333333333333
sI189
F0.0011999999999999999
sI190
F0.0011566666666666667
sI191
F0.0011716666666666666
sI192
F0.0012283333333333332
sI193
F0.0011833333333333333
sI194
F0.00125
sI195
F0.0012016666666666666
sI196
F0.00115
sI197
F0.0010883333333333333
sI198
F0.0011766666666666666
sI199
F0.0011783333333333333
sI200
F0.0012383333333333333
sI201
F0.001175
sI202
F0.0012033333333333334
sI203
F0.0011683333333333333
sI204
F0.0011249999999999999
sI205
F0.0011249999999999999
sI206
F0.0011116666666666666
sI207
F0.0011333333333333334
sI208
F0.00117
sI209
F0.0012083333333333334
sI210
F0.0010950000000000001
sI211
F0.0011816666666666666
sI212
F0.0011133333333333334
sI213
F0.0011349999999999999
sI214
F0.0012600000000000001
sI215
F0.0011133333333333334
sI216
F0.0012033333333333334
sI217
F0.0011566666666666667
sI218
F0.0011966666666666666
sI219
F0.0011233333333333334
sI220
F0.0012066666666666667
sI221
F0.0011466666666666667
sI222
F0.00108
sI223
F0.0012116666666666667
sI224
F0.0012183333333333334
sI225
F0.0012533333333333333
sI226
F0.001225
sI227
F0.0011716666666666666
sI228
F0.0011983333333333334
sI229
F0.0011916666666666666
sI230
F0.0012416666666666667
sI231
F0.0012566666666666666
sI232
F0.0012199999999999999
sI233
F0.0011633333333333333
sI234
F0.0011199999999999999
sI235
F0.001165
sI236
F0.0011950000000000001
sI237
F0.0011000000000000001
sI238
F0.0011866666666666666
sI239
F0.001245
sI240
F0.0012533333333333333
sI241
F0.0011933333333333334
sI242
F0.0012633333333333333
sI243
F0.0010866666666666668
sI244
F0.001165
sI245
F0.0011466666666666667
sI246
F0.0011683333333333333
sI247
F0.0011616666666666668
sI248
F0.00132
sI249
F0.0011566666666666667
sI250
F0.0011999999999999999
sI251
F0.0011916666666666666
sI252
F0.0011233333333333334
sI253
F0.001175
sI254
F0.0012066666666666667
sI255
F0.0011316666666666667
sI256
F0.0011783333333333333
sI257
F0.0012633333333333333
sI258
F0.0011883333333333333
sI259
F0.0012199999999999999
sI260
F0.0012149999999999999
sI261
F0.0011933333333333334
sI262
F0.0011933333333333334
sI263
F0.0011866666666666666
sI264
F0.0012316666666666667
sI265
F0.0012099999999999999
sI266
F0.0012466666666666668
sI267
F0.0011566666666666667
sI268
F0.0012666666666666666
sI269
F0.0011966666666666666
sI270
F0.0011800000000000001
sI271
F0.00117
sI272
F0.0011966666666666666
sI273
F0.001225
sI274
F0.0012016666666666666
sI275
F0.0012433333333333333
sI276
F0.0011950000000000001
sI277
F0.0011433333333333334
sI278
F0.0011583333333333333
sI279
F0.001245
sI280
F0.0011533333333333333
sI281
F0.0011833333333333333
sI282
F0.0012199999999999999
sI283
F0.0011883333333333333
sI284
F0.0010966666666666666
sI285
F0.0011199999999999999
sI286
F0.0011833333333333333
sI287
F0.0011433333333333334
sI288
F0.0012016666666666666
sI289
F0.0011716666666666666
sI290
F0.001225
sI291
F0.00109
sI292
F0.0012199999999999999
sI293
F0.0011133333333333334
sI294
F0.0012216666666666667
sI295
F0.0011883333333333333
sI296
F0.001255
sI297
F0.0011933333333333334
sI298
F0.0011033333333333333
sI299
F0.001255
sI300
F0.0012016666666666666
sI301
F0.0012099999999999999
sI302
F0.0011883333333333333
sI303
F0.0011566666666666667
sI304
F0.0011733333333333333
sI305
F0.0012866666666666666
sI306
F0.0012266666666666667
sI307
F0.0012516666666666668
sI308
F0.0011216666666666666
sI309
F0.0011100000000000001
sI310
F0.0011199999999999999
sI311
F0.0011950000000000001
sI312
F0.0012316666666666667
sI313
F0.0011383333333333334
sI314
F0.0011933333333333334
sI315
F0.0012166666666666667
sI316
F0.0011950000000000001
sI317
F0.0011483333333333332
sI318
F0.0011966666666666666
sI319
F0.0012766666666666666
sI320
F0.0012416666666666667
sI321
F0.0011800000000000001
ssg984
F0.37786666666666668
sstp991
atRp992
sb.